                                      1 ;--------------------------------------------------------
                                      2 ; File Created by SDCC : free open source ISO C Compiler
                                      3 ; Version 4.5.0 #15242 (Mac OS X ppc)
                                      4 ;--------------------------------------------------------
                                      5 	.module ciclo
                                      6 	
                                      7 	.optsdcc -mz80 sdcccall(1)
                                      8 ;--------------------------------------------------------
                                      9 ; Public variables in this module
                                     10 ;--------------------------------------------------------
                                     11 	.globl _main
                                     12 	.globl _reverse
                                     13 	.globl _DisplayChar
                                     14 	.globl __8BP_umap_inv6
                                     15 	.globl __8BP_moverall_inv2
                                     16 	.globl __8BP_mover_inv3
                                     17 	.globl __8BP_map2sp_inv2
                                     18 	.globl __8BP_layout_inv3
                                     19 	.globl __8BP_stars_inv5
                                     20 	.globl __8BP_setupsp_inv4
                                     21 	.globl __8BP_setupsp_inv3
                                     22 	.globl __8BP_setlimits_inv4
                                     23 	.globl __8BP_routesp_inv2
                                     24 	.globl __8BP_printspall_inv4
                                     25 	.globl __8BP_printsp_inv2
                                     26 	.globl __8BP_printsp_inv3
                                     27 	.globl __8BP_printat_inv
                                     28 	.globl _getDescriptor
                                     29 	.globl __8BP_music_inv4
                                     30 	.globl __8BP_locatesp_inv3
                                     31 	.globl __8BP_colspall_inv2
                                     32 	.globl __8BP_colsp_inv2
                                     33 	.globl __8BP_colsp_inv3
                                     34 	.globl __8BP_colay_inv2
                                     35 	.globl __8BP_colay_inv3
                                     36 	.globl __8BP_3D_inv3
                                     37 	.globl _comandos_8BP_V39
                                     38 	.globl _strlen
                                     39 	.globl _abs
                                     40 	.globl __basic_rnd_x
                                     41 	.globl __8BP_rink_N_inverse_list
                                     42 	.globl __8BP_rink_N_color1
                                     43 	.globl __8BP_3D_3
                                     44 	.globl __8BP_3D_1
                                     45 	.globl __8BP_anima_1
                                     46 	.globl __8BP_animall
                                     47 	.globl __8BP_auto_1
                                     48 	.globl __8BP_autoall_1
                                     49 	.globl __8BP_autoall
                                     50 	.globl __8BP_colay
                                     51 	.globl __8BP_colay_2
                                     52 	.globl __8BP_colay_1
                                     53 	.globl __8BP_colay_3
                                     54 	.globl __8BP_colsp_3
                                     55 	.globl __8BP_colsp_2
                                     56 	.globl __8BP_colsp_1
                                     57 	.globl __8BP_colspall
                                     58 	.globl __8BP_colspall_1
                                     59 	.globl __8BP_colspall_2
                                     60 	.globl __8BP_locatesp_3
                                     61 	.globl __8BP_music_4
                                     62 	.globl __8BP_music
                                     63 	.globl __8BP_printat_4
                                     64 	.globl __8BP_printsp_3
                                     65 	.globl __8BP_printsp_2
                                     66 	.globl __8BP_printsp_1
                                     67 	.globl __8BP_printspall_4
                                     68 	.globl __8BP_printspall_1
                                     69 	.globl __8BP_printspall
                                     70 	.globl __8BP_routeall
                                     71 	.globl __8BP_routesp_2
                                     72 	.globl __8BP_routesp_1
                                     73 	.globl __8BP_setlimits_4
                                     74 	.globl __8BP_setupsp_3
                                     75 	.globl __8BP_setupsp_4
                                     76 	.globl __8BP_stars_5
                                     77 	.globl __8BP_stars
                                     78 	.globl __8BP_layout_3
                                     79 	.globl __8BP_map2sp_2
                                     80 	.globl __8BP_map2sp_1
                                     81 	.globl __8BP_mover_3
                                     82 	.globl __8BP_mover_1
                                     83 	.globl __8BP_moverall_2
                                     84 	.globl __8BP_moverall
                                     85 	.globl __8BP_peek_2
                                     86 	.globl __8BP_poke_2
                                     87 	.globl __8BP_rink_1
                                     88 	.globl __8BP_rink_N
                                     89 	.globl __8BP_umap_6
                                     90 	.globl __basic_time
                                     91 	.globl __basic_rnd
                                     92 	.globl __basic_border
                                     93 	.globl __basic_print
                                     94 	.globl __basic_inkey
                                     95 	.globl __basic_str
                                     96 	.globl __basic_call
                                     97 	.globl __basic_locate
                                     98 	.globl __basic_sound
                                     99 	.globl __basic_ink
                                    100 	.globl __basic_peek
                                    101 	.globl __basic_poke
                                    102 	.globl __basic_pen_txt
                                    103 	.globl __basic_pen_graph
                                    104 	.globl __basic_paper
                                    105 	.globl __basic_plot
                                    106 	.globl __basic_move
                                    107 	.globl __basic_draw
                                    108 ;--------------------------------------------------------
                                    109 ; special function registers
                                    110 ;--------------------------------------------------------
                                    111 ;--------------------------------------------------------
                                    112 ; ram data
                                    113 ;--------------------------------------------------------
                                    114 	.area _DATA
    00000000                        115 __8BP_rink_N_color1::
    00000000                        116 	.ds 1
    00000001                        117 __8BP_rink_N_inverse_list::
    00000001                        118 	.ds 34
    00000023                        119 __basic_str_buffer_10000_282:
    00000023                        120 	.ds 11
                                    121 ;--------------------------------------------------------
                                    122 ; ram data
                                    123 ;--------------------------------------------------------
                                    124 	.area _INITIALIZED
    00000000                        125 __basic_rnd_x::
    00000000                        126 	.ds 2
                                    127 ;--------------------------------------------------------
                                    128 ; absolute external ram data
                                    129 ;--------------------------------------------------------
                                    130 	.area _DABS (ABS)
                                    131 ;--------------------------------------------------------
                                    132 ; global & static initialisations
                                    133 ;--------------------------------------------------------
                                    134 	.area _HOME
                                    135 	.area _GSINIT
                                    136 	.area _GSFINAL
                                    137 	.area _GSINIT
                                    138 ;mini_BASIC/minibasic.h:177: static char buffer[]="          ";
    00000000 21r23r00         [10]  139 	ld	hl, #__basic_str_buffer_10000_282
    00000003 36 20            [10]  140 	ld	(hl), #0x20
    00000005 23               [ 6]  141 	inc	hl
    00000006 36 20            [10]  142 	ld	(hl), #0x20
    00000008 21r25r00         [10]  143 	ld	hl, #__basic_str_buffer_10000_282 + 2
    0000000B 36 20            [10]  144 	ld	(hl), #0x20
    0000000D 21r26r00         [10]  145 	ld	hl, #__basic_str_buffer_10000_282 + 3
    00000010 36 20            [10]  146 	ld	(hl), #0x20
    00000012 21r27r00         [10]  147 	ld	hl, #__basic_str_buffer_10000_282 + 4
    00000015 36 20            [10]  148 	ld	(hl), #0x20
    00000017 21r28r00         [10]  149 	ld	hl, #__basic_str_buffer_10000_282 + 5
    0000001A 36 20            [10]  150 	ld	(hl), #0x20
    0000001C 21r29r00         [10]  151 	ld	hl, #__basic_str_buffer_10000_282 + 6
    0000001F 36 20            [10]  152 	ld	(hl), #0x20
    00000021 21r2Ar00         [10]  153 	ld	hl, #__basic_str_buffer_10000_282 + 7
    00000024 36 20            [10]  154 	ld	(hl), #0x20
    00000026 21r2Br00         [10]  155 	ld	hl, #__basic_str_buffer_10000_282 + 8
    00000029 36 20            [10]  156 	ld	(hl), #0x20
    0000002B 21r2Cr00         [10]  157 	ld	hl, #__basic_str_buffer_10000_282 + 9
    0000002E 36 20            [10]  158 	ld	(hl), #0x20
    00000030 21r2Dr00         [10]  159 	ld	hl, #__basic_str_buffer_10000_282 + 10
    00000033 36 00            [10]  160 	ld	(hl), #0x00
                                    161 ;--------------------------------------------------------
                                    162 ; Home
                                    163 ;--------------------------------------------------------
                                    164 	.area _HOME
                                    165 	.area _HOME
                                    166 ;--------------------------------------------------------
                                    167 ; code
                                    168 ;--------------------------------------------------------
                                    169 	.area _CODE
                                    170 ;BASIC/8BP.h:103: void comandos_8BP_V39(){
                                    171 ;	---------------------------------
                                    172 ; Function comandos_8BP_V39
                                    173 ; ---------------------------------
    00000000                        174 _comandos_8BP_V39::
                                    175 ;BASIC/8BP.h:133: __endasm;
                         0000646C   176 	_3D	== 0x646c
                         00006FC9   177 	ANIMA	== 0x6fc9;
                         0000770D   178 	ANIMALL	== 0x770d;
                         0000717B   179 	AUTO	== 0x717b;
                         000071C9   180 	AUTOALL	== 0x71c9;
                         000071F8   181 	COLAY	== 0x71f8;
                         000073A3   182 	COLSP	== 0x73a3;
                         000075A8   183 	COLSPALL	== 0x75a8;
                         00007059   184 	LAYOUT	== 0x7059;
                         00006C71   185 	LOCATESP	== 0x6C71
                         000064A8   186 	MAP2SP	== 0x64A8
                         00007535   187 	MOVER	== 0x7535;
                         000076E7   188 	MOVERALL	== 0x76e7;
                         00006F55   189 	MUSIC	== 0x6F55
                         00006932   190 	PEEK	== 0x6932
                         00006945   191 	POKE	== 0x6945
                         0000607F   192 	PRINTAT	== 0x607F
                         00006C94   193 	PRINTSP	== 0x6C94
                         000062BC   194 	PRINTSPALL	== 0x62BC
                         00007627   195 	RINK	== 0x7627;
                         00006606   196 	ROUTESP	== 0x6606
                         000065E5   197 	ROUTEALL	== 0x65E5
                         00006871   198 	SETLIMITS	== 0x6871
                         000070F8   199 	SETUPSP	== 0x70f8;
                         00007433   200 	STARS	== 0x7433;
                         00005F4A   201 	UMAP	== 0x5F4A
                                    202 ;BASIC/8BP.h:134: }
    00000000 C9               [10]  203 	ret
                                    204 ;BASIC/8BP.h:137: void _8BP_3D_inv3(int offsety,int sp_fin, int flag)
                                    205 ;	---------------------------------
                                    206 ; Function _8BP_3D_inv3
                                    207 ; ---------------------------------
    00000001                        208 __8BP_3D_inv3::
                                    209 ;BASIC/8BP.h:148: __endasm;			
    00000001 3E 03            [ 7]  210 	ld	a, #3
    00000003 DD 21 02 00      [14]  211 	ld	ix,#2 ;posicion primer parametro 
    00000007 DD 39            [15]  212 	add ix,sp;
    00000009 CD 6C 64         [17]  213 	call	_3D ;
                                    214 ;BASIC/8BP.h:150: }
    0000000C E1               [10]  215 	pop	hl
    0000000D F1               [10]  216 	pop	af
    0000000E E9               [ 4]  217 	jp	(hl)
                                    218 ;BASIC/8BP.h:152: void _8BP_3D_3(int flag, int sp_fin,int offsety)  
                                    219 ;	---------------------------------
                                    220 ; Function _8BP_3D_3
                                    221 ; ---------------------------------
    0000000F                        222 __8BP_3D_3::
                                    223 ;BASIC/8BP.h:154: _8BP_3D_inv3(offsety,sp_fin,flag);
    0000000F E5               [11]  224 	push	hl
    00000010 21 04 00         [10]  225 	ld	hl, #4
    00000013 39               [11]  226 	add	hl, sp
    00000014 7E               [ 7]  227 	ld	a, (hl)
    00000015 23               [ 6]  228 	inc	hl
    00000016 66               [ 7]  229 	ld	h, (hl)
    00000017 6F               [ 4]  230 	ld	l, a
    00000018 CDr01r00         [17]  231 	call	__8BP_3D_inv3
                                    232 ;BASIC/8BP.h:155: }
    0000001B E1               [10]  233 	pop	hl
    0000001C F1               [10]  234 	pop	af
    0000001D E9               [ 4]  235 	jp	(hl)
                                    236 ;BASIC/8BP.h:157: void _8BP_3D_1(int flag) 
                                    237 ;	---------------------------------
                                    238 ; Function _8BP_3D_1
                                    239 ; ---------------------------------
    0000001E                        240 __8BP_3D_1::
                                    241 ;BASIC/8BP.h:164: __endasm;			
    0000001E 3E 01            [ 7]  242 	ld	a, #1
    00000020 DD 21 02 00      [14]  243 	ld	ix,#2 ;posicion primer parametro 
    00000024 DD 39            [15]  244 	add ix,sp;
    00000026 CD 6C 64         [17]  245 	call	_3D ;
                                    246 ;BASIC/8BP.h:166: }
    00000029 C9               [10]  247 	ret
                                    248 ;BASIC/8BP.h:168: void _8BP_anima_1(int sp) 
                                    249 ;	---------------------------------
                                    250 ; Function _8BP_anima_1
                                    251 ; ---------------------------------
    0000002A                        252 __8BP_anima_1::
                                    253 ;BASIC/8BP.h:175: __endasm;			
    0000002A 3E 01            [ 7]  254 	ld	a, #1
    0000002C DD 21 02 00      [14]  255 	ld	ix,#2 ;posicion primer parametro 
    00000030 DD 39            [15]  256 	add ix,sp;
    00000032 CD C9 6F         [17]  257 	call	ANIMA ;
                                    258 ;BASIC/8BP.h:177: }
    00000035 C9               [10]  259 	ret
                                    260 ;BASIC/8BP.h:179: void _8BP_animall() 
                                    261 ;	---------------------------------
                                    262 ; Function _8BP_animall
                                    263 ; ---------------------------------
    00000036                        264 __8BP_animall::
                                    265 ;BASIC/8BP.h:184: __endasm;			
    00000036 3E 00            [ 7]  266 	ld	a,#0
    00000038 CD 0D 77         [17]  267 	call	ANIMALL ;
                                    268 ;BASIC/8BP.h:186: }
    0000003B C9               [10]  269 	ret
                                    270 ;BASIC/8BP.h:188: void _8BP_auto_1(int sp) 
                                    271 ;	---------------------------------
                                    272 ; Function _8BP_auto_1
                                    273 ; ---------------------------------
    0000003C                        274 __8BP_auto_1::
                                    275 ;BASIC/8BP.h:195: __endasm;			
    0000003C 3E 01            [ 7]  276 	ld	a, #1
    0000003E DD 21 02 00      [14]  277 	ld	ix,#2 ;posicion primer parametro 
    00000042 DD 39            [15]  278 	add ix,sp;
    00000044 CD 7B 71         [17]  279 	call	AUTO ;
                                    280 ;BASIC/8BP.h:197: }
    00000047 C9               [10]  281 	ret
                                    282 ;BASIC/8BP.h:199: void _8BP_autoall_1(int flag) 
                                    283 ;	---------------------------------
                                    284 ; Function _8BP_autoall_1
                                    285 ; ---------------------------------
    00000048                        286 __8BP_autoall_1::
                                    287 ;BASIC/8BP.h:206: __endasm;			
    00000048 3E 01            [ 7]  288 	ld	a, #1
    0000004A DD 21 02 00      [14]  289 	ld	ix,#2 ;posicion primer parametro 
    0000004E DD 39            [15]  290 	add ix,sp;
    00000050 CD C9 71         [17]  291 	call	AUTOALL ;
                                    292 ;BASIC/8BP.h:208: }
    00000053 C9               [10]  293 	ret
                                    294 ;BASIC/8BP.h:210: void _8BP_autoall() 
                                    295 ;	---------------------------------
                                    296 ; Function _8BP_autoall
                                    297 ; ---------------------------------
    00000054                        298 __8BP_autoall::
                                    299 ;BASIC/8BP.h:215: __endasm;			
    00000054 3E 00            [ 7]  300 	ld	a, #0
    00000056 CD C9 71         [17]  301 	call	AUTOALL ;
                                    302 ;BASIC/8BP.h:217: }
    00000059 C9               [10]  303 	ret
                                    304 ;BASIC/8BP.h:219: void _8BP_colay_inv3( int sp,int* colision,int umbral)
                                    305 ;	---------------------------------
                                    306 ; Function _8BP_colay_inv3
                                    307 ; ---------------------------------
    0000005A                        308 __8BP_colay_inv3::
                                    309 ;BASIC/8BP.h:226: __endasm;		
    0000005A 3E 03            [ 7]  310 	ld	a, #3
    0000005C DD 21 02 00      [14]  311 	ld	ix,#2 ;posicion primer parametro 
    00000060 DD 39            [15]  312 	add ix,sp;
    00000062 CD F8 71         [17]  313 	CALL	COLAY
                                    314 ;BASIC/8BP.h:228: }
    00000065 E1               [10]  315 	pop	hl
    00000066 F1               [10]  316 	pop	af
    00000067 E9               [ 4]  317 	jp	(hl)
                                    318 ;BASIC/8BP.h:230: void _8BP_colay()
                                    319 ;	---------------------------------
                                    320 ; Function _8BP_colay
                                    321 ; ---------------------------------
    00000068                        322 __8BP_colay::
                                    323 ;BASIC/8BP.h:235: __endasm;		
    00000068 3E 00            [ 7]  324 	ld	a, #0
    0000006A CD F8 71         [17]  325 	CALL	COLAY
                                    326 ;BASIC/8BP.h:237: }
    0000006D C9               [10]  327 	ret
                                    328 ;BASIC/8BP.h:239: void _8BP_colay_inv2(int sp, int* colision)
                                    329 ;	---------------------------------
                                    330 ; Function _8BP_colay_inv2
                                    331 ; ---------------------------------
    0000006E                        332 __8BP_colay_inv2::
                                    333 ;BASIC/8BP.h:246: __endasm;		
    0000006E 3E 02            [ 7]  334 	ld	a, #2
    00000070 DD 21 02 00      [14]  335 	ld	ix,#2 ;posicion primer parametro 
    00000074 DD 39            [15]  336 	add ix,sp;
    00000076 CD F8 71         [17]  337 	CALL	COLAY
                                    338 ;BASIC/8BP.h:248: }
    00000079 C9               [10]  339 	ret
                                    340 ;BASIC/8BP.h:249: void _8BP_colay_2(int* colision, int sp)
                                    341 ;	---------------------------------
                                    342 ; Function _8BP_colay_2
                                    343 ; ---------------------------------
    0000007A                        344 __8BP_colay_2::
    0000007A 7B               [ 4]  345 	ld	a, e
    0000007B 4A               [ 4]  346 	ld	c, d
                                    347 ;BASIC/8BP.h:251: _8BP_colay_inv2(sp, colision);
    0000007C EB               [ 4]  348 	ex	de, hl
    0000007D 6F               [ 4]  349 	ld	l, a
    0000007E 61               [ 4]  350 	ld	h, c
                                    351 ;BASIC/8BP.h:252: }
    0000007F C3r6Er00         [10]  352 	jp	__8BP_colay_inv2
                                    353 ;BASIC/8BP.h:255: void _8BP_colay_1(int sp)
                                    354 ;	---------------------------------
                                    355 ; Function _8BP_colay_1
                                    356 ; ---------------------------------
    00000082                        357 __8BP_colay_1::
                                    358 ;BASIC/8BP.h:262: __endasm;		
    00000082 3E 01            [ 7]  359 	ld	a, #1
    00000084 DD 21 02 00      [14]  360 	ld	ix,#2 ;posicion primer parametro 
    00000088 DD 39            [15]  361 	add ix,sp;
    0000008A CD F8 71         [17]  362 	CALL	COLAY
                                    363 ;BASIC/8BP.h:264: }
    0000008D C9               [10]  364 	ret
                                    365 ;BASIC/8BP.h:267: void _8BP_colay_3(int umbral, int* colision, int sp)
                                    366 ;	---------------------------------
                                    367 ; Function _8BP_colay_3
                                    368 ; ---------------------------------
    0000008E                        369 __8BP_colay_3::
                                    370 ;BASIC/8BP.h:269: _8BP_colay_inv3( sp,colision,umbral);
    0000008E E5               [11]  371 	push	hl
    0000008F 21 04 00         [10]  372 	ld	hl, #4
    00000092 39               [11]  373 	add	hl, sp
    00000093 7E               [ 7]  374 	ld	a, (hl)
    00000094 23               [ 6]  375 	inc	hl
    00000095 66               [ 7]  376 	ld	h, (hl)
    00000096 6F               [ 4]  377 	ld	l, a
    00000097 CDr5Ar00         [17]  378 	call	__8BP_colay_inv3
                                    379 ;BASIC/8BP.h:270: }
    0000009A E1               [10]  380 	pop	hl
    0000009B F1               [10]  381 	pop	af
    0000009C E9               [ 4]  382 	jp	(hl)
                                    383 ;BASIC/8BP.h:274: void _8BP_colsp_inv3( int b, int a,int operation)
                                    384 ;	---------------------------------
                                    385 ; Function _8BP_colsp_inv3
                                    386 ; ---------------------------------
    0000009D                        387 __8BP_colsp_inv3::
                                    388 ;BASIC/8BP.h:283: __endasm;		
    0000009D 3E 03            [ 7]  389 	ld	a, #3
    0000009F DD 21 02 00      [14]  390 	ld	ix,#2 ;posicion primer parametro 
    000000A3 DD 39            [15]  391 	add ix,sp;
    000000A5 CD A3 73         [17]  392 	CALL	COLSP
                                    393 ;BASIC/8BP.h:285: }
    000000A8 E1               [10]  394 	pop	hl
    000000A9 F1               [10]  395 	pop	af
    000000AA E9               [ 4]  396 	jp	(hl)
                                    397 ;BASIC/8BP.h:287: void _8BP_colsp_inv2(int* colision,int sp)
                                    398 ;	---------------------------------
                                    399 ; Function _8BP_colsp_inv2
                                    400 ; ---------------------------------
    000000AB                        401 __8BP_colsp_inv2::
                                    402 ;BASIC/8BP.h:295: __endasm;		
    000000AB 3E 02            [ 7]  403 	ld	a, #2
    000000AD DD 21 02 00      [14]  404 	ld	ix,#2 ;posicion primer parametro 
    000000B1 DD 39            [15]  405 	add ix,sp;
    000000B3 CD A3 73         [17]  406 	CALL	COLSP
                                    407 ;BASIC/8BP.h:297: }
    000000B6 C9               [10]  408 	ret
                                    409 ;BASIC/8BP.h:299: void _8BP_colsp_3(int operation, int a, int b)  
                                    410 ;	---------------------------------
                                    411 ; Function _8BP_colsp_3
                                    412 ; ---------------------------------
    000000B7                        413 __8BP_colsp_3::
                                    414 ;BASIC/8BP.h:301: _8BP_colsp_inv3(b,a,operation);
    000000B7 E5               [11]  415 	push	hl
    000000B8 21 04 00         [10]  416 	ld	hl, #4
    000000BB 39               [11]  417 	add	hl, sp
    000000BC 7E               [ 7]  418 	ld	a, (hl)
    000000BD 23               [ 6]  419 	inc	hl
    000000BE 66               [ 7]  420 	ld	h, (hl)
    000000BF 6F               [ 4]  421 	ld	l, a
    000000C0 CDr9Dr00         [17]  422 	call	__8BP_colsp_inv3
                                    423 ;BASIC/8BP.h:302: }
    000000C3 E1               [10]  424 	pop	hl
    000000C4 F1               [10]  425 	pop	af
    000000C5 E9               [ 4]  426 	jp	(hl)
                                    427 ;BASIC/8BP.h:304: void _8BP_colsp_2(int sp, int* colision)  
                                    428 ;	---------------------------------
                                    429 ; Function _8BP_colsp_2
                                    430 ; ---------------------------------
    000000C6                        431 __8BP_colsp_2::
    000000C6 7B               [ 4]  432 	ld	a, e
    000000C7 4A               [ 4]  433 	ld	c, d
                                    434 ;BASIC/8BP.h:306: _8BP_colsp_inv2(colision, sp);
    000000C8 EB               [ 4]  435 	ex	de, hl
    000000C9 6F               [ 4]  436 	ld	l, a
    000000CA 61               [ 4]  437 	ld	h, c
                                    438 ;BASIC/8BP.h:307: }
    000000CB C3rABr00         [10]  439 	jp	__8BP_colsp_inv2
                                    440 ;BASIC/8BP.h:309: void _8BP_colsp_1(int sp)  
                                    441 ;	---------------------------------
                                    442 ; Function _8BP_colsp_1
                                    443 ; ---------------------------------
    000000CE                        444 __8BP_colsp_1::
                                    445 ;BASIC/8BP.h:318: __endasm;		
    000000CE 3E 01            [ 7]  446 	ld	a, #1
    000000D0 DD 21 02 00      [14]  447 	ld	ix,#2 ;posicion primer parametro 
    000000D4 DD 39            [15]  448 	add ix,sp;
    000000D6 CD A3 73         [17]  449 	CALL	COLSP
                                    450 ;BASIC/8BP.h:319: }
    000000D9 C9               [10]  451 	ret
                                    452 ;BASIC/8BP.h:321: void _8BP_colspall_inv2(int* collided,int* collider) 
                                    453 ;	---------------------------------
                                    454 ; Function _8BP_colspall_inv2
                                    455 ; ---------------------------------
    000000DA                        456 __8BP_colspall_inv2::
                                    457 ;BASIC/8BP.h:329: __endasm;
    000000DA 3E 02            [ 7]  458 	ld	a, #2
    000000DC DD 21 02 00      [14]  459 	ld	ix,#2 ;posicion primer parametro 
    000000E0 DD 39            [15]  460 	add ix,sp;
    000000E2 CD A8 75         [17]  461 	CALL	COLSPALL
                                    462 ;BASIC/8BP.h:330: }
    000000E5 C9               [10]  463 	ret
                                    464 ;BASIC/8BP.h:332: void _8BP_colspall() 
                                    465 ;	---------------------------------
                                    466 ; Function _8BP_colspall
                                    467 ; ---------------------------------
    000000E6                        468 __8BP_colspall::
                                    469 ;BASIC/8BP.h:337: __endasm;	
    000000E6 3E 00            [ 7]  470 	ld	a, #0
    000000E8 CD A8 75         [17]  471 	CALL	COLSPALL
                                    472 ;BASIC/8BP.h:338: }
    000000EB C9               [10]  473 	ret
                                    474 ;BASIC/8BP.h:340: void _8BP_colspall_1(int collider_ini) __critical
                                    475 ;	---------------------------------
                                    476 ; Function _8BP_colspall_1
                                    477 ; ---------------------------------
    000000EC                        478 __8BP_colspall_1::
    000000EC ED 57            [ 9]  479 	ld	a,i
    000000EE F3               [ 4]  480 	di
    000000EF F5               [11]  481 	push	af
                                    482 ;BASIC/8BP.h:348: __endasm;	
    000000F0 3E 01            [ 7]  483 	ld	a, #1
    000000F2 DD 21 02 00      [14]  484 	ld	ix,#2 ;posicion primer parametro 
    000000F6 DD 39            [15]  485 	add ix,sp;
    000000F8 CD A8 75         [17]  486 	CALL	COLSPALL
                                    487 ;BASIC/8BP.h:349: }
    000000FB F1               [10]  488 	pop	af
    000000FC E0               [11]  489 	ret	PO
    000000FD FB               [ 4]  490 	ei
    000000FE C9               [10]  491 	ret
                                    492 ;BASIC/8BP.h:351: void _8BP_colspall_2(int* collider, int* collided) 
                                    493 ;	---------------------------------
                                    494 ; Function _8BP_colspall_2
                                    495 ; ---------------------------------
    000000FF                        496 __8BP_colspall_2::
    000000FF 7B               [ 4]  497 	ld	a, e
    00000100 4A               [ 4]  498 	ld	c, d
                                    499 ;BASIC/8BP.h:353: _8BP_colspall_inv2(collided,collider);
    00000101 EB               [ 4]  500 	ex	de, hl
    00000102 6F               [ 4]  501 	ld	l, a
    00000103 61               [ 4]  502 	ld	h, c
                                    503 ;BASIC/8BP.h:354: }
    00000104 C3rDAr00         [10]  504 	jp	__8BP_colspall_inv2
                                    505 ;BASIC/8BP.h:356: void _8BP_locatesp_inv3(int x, int y, char sp)
                                    506 ;	---------------------------------
                                    507 ; Function _8BP_locatesp_inv3
                                    508 ; ---------------------------------
    00000107                        509 __8BP_locatesp_inv3::
                                    510 ;BASIC/8BP.h:365: __endasm;	
    00000107 3E 03            [ 7]  511 	ld	a, #3
    00000109 DD 21 02 00      [14]  512 	ld	ix,#2 ;posicion primer parametro 
    0000010D DD 39            [15]  513 	add ix,sp;
    0000010F CD 71 6C         [17]  514 	CALL	LOCATESP
                                    515 ;BASIC/8BP.h:367: }
    00000112 E1               [10]  516 	pop	hl
    00000113 33               [ 6]  517 	inc	sp
    00000114 E9               [ 4]  518 	jp	(hl)
                                    519 ;BASIC/8BP.h:369: void _8BP_locatesp_3(char sp, int y, int x) 
                                    520 ;	---------------------------------
                                    521 ; Function _8BP_locatesp_3
                                    522 ; ---------------------------------
    00000115                        523 __8BP_locatesp_3::
                                    524 ;BASIC/8BP.h:371: _8BP_locatesp_inv3( x, y, sp);
    00000115 F5               [11]  525 	push	af
    00000116 33               [ 6]  526 	inc	sp
    00000117 21 03 00         [10]  527 	ld	hl, #3
    0000011A 39               [11]  528 	add	hl, sp
    0000011B 7E               [ 7]  529 	ld	a, (hl)
    0000011C 23               [ 6]  530 	inc	hl
    0000011D 66               [ 7]  531 	ld	h, (hl)
    0000011E 6F               [ 4]  532 	ld	l, a
    0000011F CDr07r01         [17]  533 	call	__8BP_locatesp_inv3
                                    534 ;BASIC/8BP.h:372: }
    00000122 E1               [10]  535 	pop	hl
    00000123 F1               [10]  536 	pop	af
    00000124 E9               [ 4]  537 	jp	(hl)
                                    538 ;BASIC/8BP.h:375: void _8BP_music_inv4(int speed, int song, int flag_repetition, int flag_c) 
                                    539 ;	---------------------------------
                                    540 ; Function _8BP_music_inv4
                                    541 ; ---------------------------------
    00000125                        542 __8BP_music_inv4::
                                    543 ;BASIC/8BP.h:386: __endasm;		
    00000125 3E 04            [ 7]  544 	ld	a, #4
    00000127 DD 21 02 00      [14]  545 	ld	ix,#2 ;posicion primer parametro 
    0000012B DD 39            [15]  546 	add ix,sp;
    0000012D CD 55 6F         [17]  547 	CALL	MUSIC
                                    548 ;BASIC/8BP.h:387: }
    00000130 E1               [10]  549 	pop	hl
    00000131 F1               [10]  550 	pop	af
    00000132 F1               [10]  551 	pop	af
    00000133 E9               [ 4]  552 	jp	(hl)
                                    553 ;BASIC/8BP.h:389: void _8BP_music_4(int flag_c, int flag_repetition,int song, int speed)  
                                    554 ;	---------------------------------
                                    555 ; Function _8BP_music_4
                                    556 ; ---------------------------------
    00000134                        557 __8BP_music_4::
                                    558 ;BASIC/8BP.h:391: _8BP_music_inv4(speed, song, flag_repetition, flag_c);
    00000134 E5               [11]  559 	push	hl
    00000135 D5               [11]  560 	push	de
    00000136 FD 21 06 00      [14]  561 	ld	iy, #6
    0000013A FD 39            [15]  562 	add	iy, sp
    0000013C FD 5E 00         [19]  563 	ld	e, 0 (iy)
    0000013F FD 56 01         [19]  564 	ld	d, 1 (iy)
    00000142 FD 6E 02         [19]  565 	ld	l, 2 (iy)
    00000145 FD 66 03         [19]  566 	ld	h, 3 (iy)
    00000148 CDr25r01         [17]  567 	call	__8BP_music_inv4
                                    568 ;BASIC/8BP.h:393: }
    0000014B E1               [10]  569 	pop	hl
    0000014C F1               [10]  570 	pop	af
    0000014D F1               [10]  571 	pop	af
    0000014E E9               [ 4]  572 	jp	(hl)
                                    573 ;BASIC/8BP.h:395: void _8BP_music()
                                    574 ;	---------------------------------
                                    575 ; Function _8BP_music
                                    576 ; ---------------------------------
    0000014F                        577 __8BP_music::
                                    578 ;BASIC/8BP.h:400: __endasm;		
    0000014F 3E 00            [ 7]  579 	ld	a, #0
    00000151 CD 55 6F         [17]  580 	CALL	MUSIC
                                    581 ;BASIC/8BP.h:401: }
    00000154 C9               [10]  582 	ret
                                    583 ;BASIC/8BP.h:403: void getDescriptor(char* desc,char *cad)
                                    584 ;	---------------------------------
                                    585 ; Function getDescriptor
                                    586 ; ---------------------------------
    00000155                        587 _getDescriptor::
    00000155 4B               [ 4]  588 	ld	c, e
    00000156 42               [ 4]  589 	ld	b, d
                                    590 ;BASIC/8BP.h:407: char len=strlen(cad);
    00000157 E5               [11]  591 	push	hl
    00000158 C5               [11]  592 	push	bc
    00000159 69               [ 4]  593 	ld	l, c
    0000015A 60               [ 4]  594 	ld	h, b
    0000015B CDr00r00         [17]  595 	call	_strlen
    0000015E C1               [10]  596 	pop	bc
    0000015F E1               [10]  597 	pop	hl
                                    598 ;BASIC/8BP.h:408: desc[0]=len;
    00000160 73               [ 7]  599 	ld	(hl), e
                                    600 ;BASIC/8BP.h:410: p=desc+1;
    00000161 23               [ 6]  601 	inc	hl
                                    602 ;BASIC/8BP.h:411: *p=cad;
    00000162 71               [ 7]  603 	ld	(hl), c
    00000163 23               [ 6]  604 	inc	hl
    00000164 70               [ 7]  605 	ld	(hl), b
                                    606 ;BASIC/8BP.h:414: }
    00000165 C9               [10]  607 	ret
                                    608 ;BASIC/8BP.h:416: void _8BP_printat_inv(char *descriptor , int x, int y,int flag) 
                                    609 ;	---------------------------------
                                    610 ; Function _8BP_printat_inv
                                    611 ; ---------------------------------
    00000166                        612 __8BP_printat_inv::
                                    613 ;BASIC/8BP.h:426: __endasm;			
    00000166 3E 04            [ 7]  614 	ld	a, #4
    00000168 DD 21 02 00      [14]  615 	ld	ix,#2 ;posicion primer parametro 
    0000016C DD 39            [15]  616 	add ix,sp;
    0000016E CD 7F 60         [17]  617 	CALL	PRINTAT
                                    618 ;BASIC/8BP.h:428: }
    00000171 E1               [10]  619 	pop	hl
    00000172 F1               [10]  620 	pop	af
    00000173 F1               [10]  621 	pop	af
    00000174 E9               [ 4]  622 	jp	(hl)
                                    623 ;BASIC/8BP.h:430: void _8BP_printat_4(int flag,int y,int x, char* cad)  
                                    624 ;	---------------------------------
                                    625 ; Function _8BP_printat_4
                                    626 ; ---------------------------------
    00000175                        627 __8BP_printat_4::
    00000175 F5               [11]  628 	push	af
    00000176 3B               [ 6]  629 	dec	sp
    00000177 4D               [ 4]  630 	ld	c, l
    00000178 44               [ 4]  631 	ld	b, h
                                    632 ;BASIC/8BP.h:433: char descriptor[3]={0,0,0};
    00000179 FD 21 00 00      [14]  633 	ld	iy, #0
    0000017D FD 39            [15]  634 	add	iy, sp
    0000017F FD 36 00 00      [19]  635 	ld	0 (iy), #0x00
    00000183 FD 23            [10]  636 	inc	iy
    00000185 FD 36 00 00      [19]  637 	ld	0 (iy), #0x00
    00000189 FD 23            [10]  638 	inc	iy
    0000018B FD 36 00 00      [19]  639 	ld	0 (iy), #0x00
                                    640 ;BASIC/8BP.h:434: char len=strlen(cad);
    0000018F C5               [11]  641 	push	bc
    00000190 D5               [11]  642 	push	de
    00000191 21 0B 00         [10]  643 	ld	hl, #11
    00000194 39               [11]  644 	add	hl, sp
    00000195 7E               [ 7]  645 	ld	a, (hl)
    00000196 23               [ 6]  646 	inc	hl
    00000197 66               [ 7]  647 	ld	h, (hl)
    00000198 6F               [ 4]  648 	ld	l, a
    00000199 CDr00r00         [17]  649 	call	_strlen
    0000019C EB               [ 4]  650 	ex	de, hl
    0000019D D1               [10]  651 	pop	de
    0000019E C1               [10]  652 	pop	bc
    0000019F 7D               [ 4]  653 	ld	a, l
                                    654 ;BASIC/8BP.h:435: descriptor[0]=len;
    000001A0 FD 21 00 00      [14]  655 	ld	iy, #0
    000001A4 FD 39            [15]  656 	add	iy, sp
    000001A6 FD 77 00         [19]  657 	ld	0 (iy), a
                                    658 ;BASIC/8BP.h:437: p=descriptor+1;
                                    659 ;BASIC/8BP.h:438: *p=cad;  
    000001A9 21 07 00         [10]  660 	ld	hl, #7
    000001AC 39               [11]  661 	add	hl, sp
    000001AD 7E               [ 7]  662 	ld	a, (hl)
    000001AE 23               [ 6]  663 	inc	hl
    000001AF 66               [ 7]  664 	ld	h, (hl)
    000001B0 6F               [ 4]  665 	ld	l, a
    000001B1 E5               [11]  666 	push	hl
    000001B2 7D               [ 4]  667 	ld	a, l
    000001B3 FD 21 03 00      [14]  668 	ld	iy, #3
    000001B7 FD 39            [15]  669 	add	iy, sp
    000001B9 FD 77 00         [19]  670 	ld	0 (iy), a
    000001BC E1               [10]  671 	pop	hl
    000001BD FD 74 01         [19]  672 	ld	1 (iy), h
                                    673 ;BASIC/8BP.h:441: _8BP_printat_inv(descriptor, x, y, flag);   
    000001C0 C5               [11]  674 	push	bc
    000001C1 D5               [11]  675 	push	de
    000001C2 21 09 00         [10]  676 	ld	hl, #9
    000001C5 39               [11]  677 	add	hl, sp
    000001C6 5E               [ 7]  678 	ld	e, (hl)
    000001C7 23               [ 6]  679 	inc	hl
    000001C8 56               [ 7]  680 	ld	d, (hl)
    000001C9 21 04 00         [10]  681 	ld	hl, #4
    000001CC 39               [11]  682 	add	hl, sp
    000001CD CDr66r01         [17]  683 	call	__8BP_printat_inv
                                    684 ;BASIC/8BP.h:443: } 
    000001D0 F1               [10]  685 	pop	af
    000001D1 33               [ 6]  686 	inc	sp
    000001D2 E1               [10]  687 	pop	hl
    000001D3 F1               [10]  688 	pop	af
    000001D4 F1               [10]  689 	pop	af
    000001D5 E9               [ 4]  690 	jp	(hl)
                                    691 ;BASIC/8BP.h:445: void _8BP_printsp_inv3(int x,int y, int sp)  
                                    692 ;	---------------------------------
                                    693 ; Function _8BP_printsp_inv3
                                    694 ; ---------------------------------
    000001D6                        695 __8BP_printsp_inv3::
                                    696 ;BASIC/8BP.h:455: __endasm;	
    000001D6 3E 03            [ 7]  697 	ld	a, #3 ; se envian 3 parametros
    000001D8 DD 21 02 00      [14]  698 	ld	ix,#2 ;posicion primer parametro 
    000001DC DD 39            [15]  699 	add ix,sp;
    000001DE CD 94 6C         [17]  700 	CALL	PRINTSP
                                    701 ;BASIC/8BP.h:456: }
    000001E1 E1               [10]  702 	pop	hl
    000001E2 F1               [10]  703 	pop	af
    000001E3 E9               [ 4]  704 	jp	(hl)
                                    705 ;BASIC/8BP.h:458: void _8BP_printsp_inv2(int bits, int sp) 
                                    706 ;	---------------------------------
                                    707 ; Function _8BP_printsp_inv2
                                    708 ; ---------------------------------
    000001E4                        709 __8BP_printsp_inv2::
                                    710 ;BASIC/8BP.h:467: __endasm;	
    000001E4 3E 02            [ 7]  711 	ld	a, #2
    000001E6 DD 21 02 00      [14]  712 	ld	ix,#2 ;posicion primer parametro 
    000001EA DD 39            [15]  713 	add ix,sp;
    000001EC CD 94 6C         [17]  714 	call	PRINTSP ;
                                    715 ;BASIC/8BP.h:469: }
    000001EF C9               [10]  716 	ret
                                    717 ;BASIC/8BP.h:471: void _8BP_printsp_3(int sp, int y, int x)  
                                    718 ;	---------------------------------
                                    719 ; Function _8BP_printsp_3
                                    720 ; ---------------------------------
    000001F0                        721 __8BP_printsp_3::
                                    722 ;BASIC/8BP.h:473: _8BP_printsp_inv3( x, y,  sp);
    000001F0 E5               [11]  723 	push	hl
    000001F1 21 04 00         [10]  724 	ld	hl, #4
    000001F4 39               [11]  725 	add	hl, sp
    000001F5 7E               [ 7]  726 	ld	a, (hl)
    000001F6 23               [ 6]  727 	inc	hl
    000001F7 66               [ 7]  728 	ld	h, (hl)
    000001F8 6F               [ 4]  729 	ld	l, a
    000001F9 CDrD6r01         [17]  730 	call	__8BP_printsp_inv3
                                    731 ;BASIC/8BP.h:474: }
    000001FC E1               [10]  732 	pop	hl
    000001FD F1               [10]  733 	pop	af
    000001FE E9               [ 4]  734 	jp	(hl)
                                    735 ;BASIC/8BP.h:476: void _8BP_printsp_2(int sp,int bits_background)  
                                    736 ;	---------------------------------
                                    737 ; Function _8BP_printsp_2
                                    738 ; ---------------------------------
    000001FF                        739 __8BP_printsp_2::
    000001FF 7B               [ 4]  740 	ld	a, e
    00000200 4A               [ 4]  741 	ld	c, d
                                    742 ;BASIC/8BP.h:478: _8BP_printsp_inv2( bits_background,  sp);
    00000201 EB               [ 4]  743 	ex	de, hl
    00000202 6F               [ 4]  744 	ld	l, a
    00000203 61               [ 4]  745 	ld	h, c
                                    746 ;BASIC/8BP.h:479: }
    00000204 C3rE4r01         [10]  747 	jp	__8BP_printsp_inv2
                                    748 ;BASIC/8BP.h:481: void _8BP_printsp_1(int sp)  
                                    749 ;	---------------------------------
                                    750 ; Function _8BP_printsp_1
                                    751 ; ---------------------------------
    00000207                        752 __8BP_printsp_1::
                                    753 ;BASIC/8BP.h:489: __endasm;	
    00000207 3E 01            [ 7]  754 	ld	a, #1
    00000209 DD 21 02 00      [14]  755 	ld	ix,#2 ;posicion primer parametro 
    0000020D DD 39            [15]  756 	add ix,sp;
    0000020F CD 94 6C         [17]  757 	CALL	PRINTSP
                                    758 ;BASIC/8BP.h:492: }
    00000212 C9               [10]  759 	ret
                                    760 ;BASIC/8BP.h:494: void _8BP_printspall_inv4(int flag_sync,int flag_anima, int fin, int ini)
                                    761 ;	---------------------------------
                                    762 ; Function _8BP_printspall_inv4
                                    763 ; ---------------------------------
    00000213                        764 __8BP_printspall_inv4::
                                    765 ;BASIC/8BP.h:504: __endasm;	
    00000213 3E 04            [ 7]  766 	ld	a, #4
    00000215 DD 21 02 00      [14]  767 	ld	ix,#2 ;posicion primer parametro 
    00000219 DD 39            [15]  768 	add ix,sp;
    0000021B CD BC 62         [17]  769 	CALL	PRINTSPALL
                                    770 ;BASIC/8BP.h:505: }
    0000021E E1               [10]  771 	pop	hl
    0000021F F1               [10]  772 	pop	af
    00000220 F1               [10]  773 	pop	af
    00000221 E9               [ 4]  774 	jp	(hl)
                                    775 ;BASIC/8BP.h:507: void _8BP_printspall_4(int ini, int fin, int flag_anima, int flag_sync)  
                                    776 ;	---------------------------------
                                    777 ; Function _8BP_printspall_4
                                    778 ; ---------------------------------
    00000222                        779 __8BP_printspall_4::
                                    780 ;BASIC/8BP.h:509: _8BP_printspall_inv4(flag_sync, flag_anima, fin, ini);
    00000222 E5               [11]  781 	push	hl
    00000223 D5               [11]  782 	push	de
    00000224 FD 21 06 00      [14]  783 	ld	iy, #6
    00000228 FD 39            [15]  784 	add	iy, sp
    0000022A FD 5E 00         [19]  785 	ld	e, 0 (iy)
    0000022D FD 56 01         [19]  786 	ld	d, 1 (iy)
    00000230 FD 6E 02         [19]  787 	ld	l, 2 (iy)
    00000233 FD 66 03         [19]  788 	ld	h, 3 (iy)
    00000236 CDr13r02         [17]  789 	call	__8BP_printspall_inv4
                                    790 ;BASIC/8BP.h:510: }
    00000239 E1               [10]  791 	pop	hl
    0000023A F1               [10]  792 	pop	af
    0000023B F1               [10]  793 	pop	af
    0000023C E9               [ 4]  794 	jp	(hl)
                                    795 ;BASIC/8BP.h:512: void _8BP_printspall_1(int order_type)  
                                    796 ;	---------------------------------
                                    797 ; Function _8BP_printspall_1
                                    798 ; ---------------------------------
    0000023D                        799 __8BP_printspall_1::
                                    800 ;BASIC/8BP.h:519: __endasm;	
    0000023D 3E 01            [ 7]  801 	ld	a, #1
    0000023F DD 21 02 00      [14]  802 	ld	ix,#2 ;posicion primer parametro 
    00000243 DD 39            [15]  803 	add ix,sp;
    00000245 CD BC 62         [17]  804 	CALL	PRINTSPALL
                                    805 ;BASIC/8BP.h:520: }
    00000248 C9               [10]  806 	ret
                                    807 ;BASIC/8BP.h:522: void _8BP_printspall() 
                                    808 ;	---------------------------------
                                    809 ; Function _8BP_printspall
                                    810 ; ---------------------------------
    00000249                        811 __8BP_printspall::
                                    812 ;BASIC/8BP.h:527: __endasm;	
    00000249 3E 00            [ 7]  813 	ld	a, #0
    0000024B CD BC 62         [17]  814 	CALL	PRINTSPALL
                                    815 ;BASIC/8BP.h:528: }
    0000024E C9               [10]  816 	ret
                                    817 ;BASIC/8BP.h:530: void _8BP_routeall()
                                    818 ;	---------------------------------
                                    819 ; Function _8BP_routeall
                                    820 ; ---------------------------------
    0000024F                        821 __8BP_routeall::
                                    822 ;BASIC/8BP.h:535: __endasm;	
    0000024F 3E 00            [ 7]  823 	ld	a, #0;
    00000251 CD E5 65         [17]  824 	CALL	ROUTEALL
                                    825 ;BASIC/8BP.h:537: }
    00000254 C9               [10]  826 	ret
                                    827 ;BASIC/8BP.h:540: void _8BP_routesp_inv2(int pasos, int sp) 
                                    828 ;	---------------------------------
                                    829 ; Function _8BP_routesp_inv2
                                    830 ; ---------------------------------
    00000255                        831 __8BP_routesp_inv2::
                                    832 ;BASIC/8BP.h:548: __endasm;	
    00000255 3E 02            [ 7]  833 	ld	a, #2 ;
    00000257 DD 21 02 00      [14]  834 	ld	ix,#2 ;posicion primer parametro 
    0000025B DD 39            [15]  835 	add ix,sp;
    0000025D CD 06 66         [17]  836 	CALL	ROUTESP
                                    837 ;BASIC/8BP.h:549: }
    00000260 C9               [10]  838 	ret
                                    839 ;BASIC/8BP.h:551: void _8BP_routesp_2(int sp, int pasos)  
                                    840 ;	---------------------------------
                                    841 ; Function _8BP_routesp_2
                                    842 ; ---------------------------------
    00000261                        843 __8BP_routesp_2::
    00000261 7B               [ 4]  844 	ld	a, e
    00000262 4A               [ 4]  845 	ld	c, d
                                    846 ;BASIC/8BP.h:553: _8BP_routesp_inv2(pasos,sp) ;
    00000263 EB               [ 4]  847 	ex	de, hl
    00000264 6F               [ 4]  848 	ld	l, a
    00000265 61               [ 4]  849 	ld	h, c
                                    850 ;BASIC/8BP.h:554: }
    00000266 C3r55r02         [10]  851 	jp	__8BP_routesp_inv2
                                    852 ;BASIC/8BP.h:556: void _8BP_routesp_1(int sp)  
                                    853 ;	---------------------------------
                                    854 ; Function _8BP_routesp_1
                                    855 ; ---------------------------------
    00000269                        856 __8BP_routesp_1::
                                    857 ;BASIC/8BP.h:563: __endasm;	
    00000269 3E 01            [ 7]  858 	ld	a, #1 ;
    0000026B DD 21 02 00      [14]  859 	ld	ix,#2 ;posicion primer parametro 
    0000026F DD 39            [15]  860 	add ix,sp;
    00000271 CD 06 66         [17]  861 	CALL	ROUTESP
                                    862 ;BASIC/8BP.h:565: }
    00000274 C9               [10]  863 	ret
                                    864 ;BASIC/8BP.h:567: void _8BP_setlimits_inv4(int ymax, int ymin, int xmax,int xmin)
                                    865 ;	---------------------------------
                                    866 ; Function _8BP_setlimits_inv4
                                    867 ; ---------------------------------
    00000275                        868 __8BP_setlimits_inv4::
                                    869 ;BASIC/8BP.h:574: __endasm;	
    00000275 3E 04            [ 7]  870 	ld	a, #4 ;
    00000277 DD 21 02 00      [14]  871 	ld	ix,#2 ;posicion primer parametro 
    0000027B DD 39            [15]  872 	add ix,sp;
    0000027D CD 71 68         [17]  873 	CALL	SETLIMITS
                                    874 ;BASIC/8BP.h:577: }
    00000280 E1               [10]  875 	pop	hl
    00000281 F1               [10]  876 	pop	af
    00000282 F1               [10]  877 	pop	af
    00000283 E9               [ 4]  878 	jp	(hl)
                                    879 ;BASIC/8BP.h:579: void _8BP_setlimits_4(int xmin,int xmax, int ymin, int ymax)
                                    880 ;	---------------------------------
                                    881 ; Function _8BP_setlimits_4
                                    882 ; ---------------------------------
    00000284                        883 __8BP_setlimits_4::
                                    884 ;BASIC/8BP.h:581: _8BP_setlimits_inv4( ymax,  ymin,  xmax, xmin);
    00000284 E5               [11]  885 	push	hl
    00000285 D5               [11]  886 	push	de
    00000286 FD 21 06 00      [14]  887 	ld	iy, #6
    0000028A FD 39            [15]  888 	add	iy, sp
    0000028C FD 5E 00         [19]  889 	ld	e, 0 (iy)
    0000028F FD 56 01         [19]  890 	ld	d, 1 (iy)
    00000292 FD 6E 02         [19]  891 	ld	l, 2 (iy)
    00000295 FD 66 03         [19]  892 	ld	h, 3 (iy)
    00000298 CDr75r02         [17]  893 	call	__8BP_setlimits_inv4
                                    894 ;BASIC/8BP.h:582: }
    0000029B E1               [10]  895 	pop	hl
    0000029C F1               [10]  896 	pop	af
    0000029D F1               [10]  897 	pop	af
    0000029E E9               [ 4]  898 	jp	(hl)
                                    899 ;BASIC/8BP.h:584: void _8BP_setupsp_inv3(int value,int param, int sp) 
                                    900 ;	---------------------------------
                                    901 ; Function _8BP_setupsp_inv3
                                    902 ; ---------------------------------
    0000029F                        903 __8BP_setupsp_inv3::
                                    904 ;BASIC/8BP.h:593: __endasm;	
    0000029F 3E 03            [ 7]  905 	ld	a, #3 ; se envian 3 parametros
    000002A1 DD 21 02 00      [14]  906 	ld	ix,#2 ;posicion primer parametro 
    000002A5 DD 39            [15]  907 	add ix,sp;
    000002A7 CD F8 70         [17]  908 	CALL	SETUPSP
                                    909 ;BASIC/8BP.h:594: }
    000002AA E1               [10]  910 	pop	hl
    000002AB F1               [10]  911 	pop	af
    000002AC E9               [ 4]  912 	jp	(hl)
                                    913 ;BASIC/8BP.h:596: void _8BP_setupsp_inv4(int value2,int value1,int param, int sp) 
                                    914 ;	---------------------------------
                                    915 ; Function _8BP_setupsp_inv4
                                    916 ; ---------------------------------
    000002AD                        917 __8BP_setupsp_inv4::
                                    918 ;BASIC/8BP.h:606: __endasm;	
    000002AD 3E 04            [ 7]  919 	ld	a, #4 ;
    000002AF DD 21 02 00      [14]  920 	ld	ix,#2 ;posicion primer parametro 
    000002B3 DD 39            [15]  921 	add ix,sp;
    000002B5 CD F8 70         [17]  922 	CALL	SETUPSP
                                    923 ;BASIC/8BP.h:607: }
    000002B8 E1               [10]  924 	pop	hl
    000002B9 F1               [10]  925 	pop	af
    000002BA F1               [10]  926 	pop	af
    000002BB E9               [ 4]  927 	jp	(hl)
                                    928 ;BASIC/8BP.h:609: void _8BP_setupsp_3(int sp,int param, int value)  
                                    929 ;	---------------------------------
                                    930 ; Function _8BP_setupsp_3
                                    931 ; ---------------------------------
    000002BC                        932 __8BP_setupsp_3::
                                    933 ;BASIC/8BP.h:611: _8BP_setupsp_inv3(value,param, sp);
    000002BC E5               [11]  934 	push	hl
    000002BD 21 04 00         [10]  935 	ld	hl, #4
    000002C0 39               [11]  936 	add	hl, sp
    000002C1 7E               [ 7]  937 	ld	a, (hl)
    000002C2 23               [ 6]  938 	inc	hl
    000002C3 66               [ 7]  939 	ld	h, (hl)
    000002C4 6F               [ 4]  940 	ld	l, a
    000002C5 CDr9Fr02         [17]  941 	call	__8BP_setupsp_inv3
                                    942 ;BASIC/8BP.h:612: }
    000002C8 E1               [10]  943 	pop	hl
    000002C9 F1               [10]  944 	pop	af
    000002CA E9               [ 4]  945 	jp	(hl)
                                    946 ;BASIC/8BP.h:614: void _8BP_setupsp_4(int sp,int param, int value1,int value2) 
                                    947 ;	---------------------------------
                                    948 ; Function _8BP_setupsp_4
                                    949 ; ---------------------------------
    000002CB                        950 __8BP_setupsp_4::
                                    951 ;BASIC/8BP.h:616: _8BP_setupsp_inv4(value2,value1,param, sp);
    000002CB E5               [11]  952 	push	hl
    000002CC D5               [11]  953 	push	de
    000002CD FD 21 06 00      [14]  954 	ld	iy, #6
    000002D1 FD 39            [15]  955 	add	iy, sp
    000002D3 FD 5E 00         [19]  956 	ld	e, 0 (iy)
    000002D6 FD 56 01         [19]  957 	ld	d, 1 (iy)
    000002D9 FD 6E 02         [19]  958 	ld	l, 2 (iy)
    000002DC FD 66 03         [19]  959 	ld	h, 3 (iy)
    000002DF CDrADr02         [17]  960 	call	__8BP_setupsp_inv4
                                    961 ;BASIC/8BP.h:617: }
    000002E2 E1               [10]  962 	pop	hl
    000002E3 F1               [10]  963 	pop	af
    000002E4 F1               [10]  964 	pop	af
    000002E5 E9               [ 4]  965 	jp	(hl)
                                    966 ;BASIC/8BP.h:620: void _8BP_stars_inv5(int dx, int dy, int color, int num_stars,int star_ini)
                                    967 ;	---------------------------------
                                    968 ; Function _8BP_stars_inv5
                                    969 ; ---------------------------------
    000002E6                        970 __8BP_stars_inv5::
                                    971 ;BASIC/8BP.h:631: __endasm;	
    000002E6 3E 05            [ 7]  972 	ld	a, #5
    000002E8 DD 21 02 00      [14]  973 	ld	ix,#2 ;posicion primer parametro 
    000002EC DD 39            [15]  974 	add ix,sp;
    000002EE CD 33 74         [17]  975 	CALL	STARS
                                    976 ;BASIC/8BP.h:632: }
    000002F1 E1               [10]  977 	pop	hl
    000002F2 F1               [10]  978 	pop	af
    000002F3 F1               [10]  979 	pop	af
    000002F4 F1               [10]  980 	pop	af
    000002F5 E9               [ 4]  981 	jp	(hl)
                                    982 ;BASIC/8BP.h:634: void _8BP_stars_5(int star_ini, int num_stars,int color, int dy, int dx)  
                                    983 ;	---------------------------------
                                    984 ; Function _8BP_stars_5
                                    985 ; ---------------------------------
    000002F6                        986 __8BP_stars_5::
                                    987 ;BASIC/8BP.h:636: _8BP_stars_inv5(dx, dy, color, num_stars,star_ini);
    000002F6 E5               [11]  988 	push	hl
    000002F7 D5               [11]  989 	push	de
    000002F8 FD 21 06 00      [14]  990 	ld	iy, #6
    000002FC FD 39            [15]  991 	add	iy, sp
    000002FE FD 6E 00         [19]  992 	ld	l, 0 (iy)
    00000301 FD 66 01         [19]  993 	ld	h, 1 (iy)
    00000304 E5               [11]  994 	push	hl
    00000305 FD 5E 02         [19]  995 	ld	e, 2 (iy)
    00000308 FD 56 03         [19]  996 	ld	d, 3 (iy)
    0000030B FD 6E 04         [19]  997 	ld	l, 4 (iy)
    0000030E FD 66 05         [19]  998 	ld	h, 5 (iy)
    00000311 CDrE6r02         [17]  999 	call	__8BP_stars_inv5
                                   1000 ;BASIC/8BP.h:637: }	
    00000314 E1               [10] 1001 	pop	hl
    00000315 F1               [10] 1002 	pop	af
    00000316 F1               [10] 1003 	pop	af
    00000317 F1               [10] 1004 	pop	af
    00000318 E9               [ 4] 1005 	jp	(hl)
                                   1006 ;BASIC/8BP.h:639: void _8BP_stars() 
                                   1007 ;	---------------------------------
                                   1008 ; Function _8BP_stars
                                   1009 ; ---------------------------------
    00000319                       1010 __8BP_stars::
                                   1011 ;BASIC/8BP.h:644: __endasm;	
    00000319 3E 00            [ 7] 1012 	ld	a, #0
    0000031B CD 33 74         [17] 1013 	CALL	STARS
                                   1014 ;BASIC/8BP.h:646: }
    0000031E C9               [10] 1015 	ret
                                   1016 ;BASIC/8BP.h:648: void _8BP_layout_inv3(char* descriptor, int x,int y)
                                   1017 ;	---------------------------------
                                   1018 ; Function _8BP_layout_inv3
                                   1019 ; ---------------------------------
    0000031F                       1020 __8BP_layout_inv3::
                                   1021 ;BASIC/8BP.h:655: __endasm;
    0000031F 3E 03            [ 7] 1022 	ld	a,#3
    00000321 DD 21 02 00      [14] 1023 	ld	ix,#2 ;posicion primer parametro 
    00000325 DD 39            [15] 1024 	add ix,sp;
    00000327 CD 59 70         [17] 1025 	CALL	LAYOUT
                                   1026 ;BASIC/8BP.h:657: }
    0000032A E1               [10] 1027 	pop	hl
    0000032B F1               [10] 1028 	pop	af
    0000032C E9               [ 4] 1029 	jp	(hl)
                                   1030 ;BASIC/8BP.h:659: void _8BP_layout_3(int y, int x, char* cad)
                                   1031 ;	---------------------------------
                                   1032 ; Function _8BP_layout_3
                                   1033 ; ---------------------------------
    0000032D                       1034 __8BP_layout_3::
    0000032D F5               [11] 1035 	push	af
    0000032E F5               [11] 1036 	push	af
    0000032F 3B               [ 6] 1037 	dec	sp
    00000330 4D               [ 4] 1038 	ld	c, l
    00000331 44               [ 4] 1039 	ld	b, h
    00000332 FD 21 03 00      [14] 1040 	ld	iy, #3
    00000336 FD 39            [15] 1041 	add	iy, sp
    00000338 FD 73 00         [19] 1042 	ld	0 (iy), e
    0000033B FD 72 01         [19] 1043 	ld	1 (iy), d
                                   1044 ;BASIC/8BP.h:662: char descriptor[3]={0,0,0};
    0000033E FD 2B            [10] 1045 	dec	iy
    00000340 FD 2B            [10] 1046 	dec	iy
    00000342 FD 2B            [10] 1047 	dec	iy
    00000344 FD 36 00 00      [19] 1048 	ld	0 (iy), #0x00
    00000348 FD 23            [10] 1049 	inc	iy
    0000034A FD 36 00 00      [19] 1050 	ld	0 (iy), #0x00
    0000034E FD 23            [10] 1051 	inc	iy
    00000350 FD 36 00 00      [19] 1052 	ld	0 (iy), #0x00
                                   1053 ;BASIC/8BP.h:663: char len=strlen(cad);
    00000354 C5               [11] 1054 	push	bc
    00000355 21 09 00         [10] 1055 	ld	hl, #9
    00000358 39               [11] 1056 	add	hl, sp
    00000359 7E               [ 7] 1057 	ld	a, (hl)
    0000035A 23               [ 6] 1058 	inc	hl
    0000035B 66               [ 7] 1059 	ld	h, (hl)
    0000035C 6F               [ 4] 1060 	ld	l, a
    0000035D CDr00r00         [17] 1061 	call	_strlen
    00000360 C1               [10] 1062 	pop	bc
                                   1063 ;BASIC/8BP.h:664: descriptor[0]=len;
    00000361 FD 21 00 00      [14] 1064 	ld	iy, #0
    00000365 FD 39            [15] 1065 	add	iy, sp
    00000367 FD 73 00         [19] 1066 	ld	0 (iy), e
                                   1067 ;BASIC/8BP.h:666: p=descriptor+1;
                                   1068 ;BASIC/8BP.h:667: *p=cad;  
    0000036A 21 07 00         [10] 1069 	ld	hl, #7
    0000036D 39               [11] 1070 	add	hl, sp
    0000036E 5E               [ 7] 1071 	ld	e, (hl)
    0000036F 23               [ 6] 1072 	inc	hl
    00000370 56               [ 7] 1073 	ld	d, (hl)
    00000371 FD 21 01 00      [14] 1074 	ld	iy, #1
    00000375 FD 39            [15] 1075 	add	iy, sp
    00000377 FD 73 00         [19] 1076 	ld	0 (iy), e
    0000037A FD 72 01         [19] 1077 	ld	1 (iy), d
                                   1078 ;BASIC/8BP.h:669: _8BP_layout_inv3(descriptor, x,  y );
    0000037D C5               [11] 1079 	push	bc
    0000037E FD 5E 02         [19] 1080 	ld	e, 2 (iy)
    00000381 FD 56 03         [19] 1081 	ld	d, 3 (iy)
    00000384 21 02 00         [10] 1082 	ld	hl, #2
    00000387 39               [11] 1083 	add	hl, sp
    00000388 CDr1Fr03         [17] 1084 	call	__8BP_layout_inv3
                                   1085 ;BASIC/8BP.h:671: }
    0000038B F1               [10] 1086 	pop	af
    0000038C F1               [10] 1087 	pop	af
    0000038D 33               [ 6] 1088 	inc	sp
    0000038E E1               [10] 1089 	pop	hl
    0000038F F1               [10] 1090 	pop	af
    00000390 E9               [ 4] 1091 	jp	(hl)
                                   1092 ;BASIC/8BP.h:673: void _8BP_map2sp_inv2(int x, int y)
                                   1093 ;	---------------------------------
                                   1094 ; Function _8BP_map2sp_inv2
                                   1095 ; ---------------------------------
    00000391                       1096 __8BP_map2sp_inv2::
                                   1097 ;BASIC/8BP.h:680: __endasm;	
    00000391 3E 02            [ 7] 1098 	ld	a,#2
    00000393 DD 21 02 00      [14] 1099 	ld	ix,#2 ;posicion primer parametro 
    00000397 DD 39            [15] 1100 	add ix,sp;
    00000399 CD A8 64         [17] 1101 	CALL	MAP2SP
                                   1102 ;BASIC/8BP.h:681: }
    0000039C C9               [10] 1103 	ret
                                   1104 ;BASIC/8BP.h:682: void _8BP_map2sp_2(int y, int x)
                                   1105 ;	---------------------------------
                                   1106 ; Function _8BP_map2sp_2
                                   1107 ; ---------------------------------
    0000039D                       1108 __8BP_map2sp_2::
    0000039D 7B               [ 4] 1109 	ld	a, e
    0000039E 4A               [ 4] 1110 	ld	c, d
                                   1111 ;BASIC/8BP.h:685: _8BP_map2sp_inv2(x,y);
    0000039F EB               [ 4] 1112 	ex	de, hl
    000003A0 6F               [ 4] 1113 	ld	l, a
    000003A1 61               [ 4] 1114 	ld	h, c
                                   1115 ;BASIC/8BP.h:686: }
    000003A2 C3r91r03         [10] 1116 	jp	__8BP_map2sp_inv2
                                   1117 ;BASIC/8BP.h:688: void _8BP_map2sp_1(unsigned char status)
                                   1118 ;	---------------------------------
                                   1119 ; Function _8BP_map2sp_1
                                   1120 ; ---------------------------------
    000003A5                       1121 __8BP_map2sp_1::
                                   1122 ;BASIC/8BP.h:695: __endasm;	
    000003A5 3E 01            [ 7] 1123 	ld	a,#1
    000003A7 DD 21 02 00      [14] 1124 	ld	ix,#2 ;posicion primer parametro 
    000003AB DD 39            [15] 1125 	add ix,sp;
    000003AD CD A8 64         [17] 1126 	CALL	MAP2SP
                                   1127 ;BASIC/8BP.h:697: }
    000003B0 C9               [10] 1128 	ret
                                   1129 ;BASIC/8BP.h:699: void _8BP_mover_inv3(int dx,int dy,int sp)
                                   1130 ;	---------------------------------
                                   1131 ; Function _8BP_mover_inv3
                                   1132 ; ---------------------------------
    000003B1                       1133 __8BP_mover_inv3::
                                   1134 ;BASIC/8BP.h:706: __endasm;	
    000003B1 3E 03            [ 7] 1135 	ld	a,#3
    000003B3 DD 21 02 00      [14] 1136 	ld	ix,#2 ;posicion primer parametro 
    000003B7 DD 39            [15] 1137 	add ix,sp;
    000003B9 CD 35 75         [17] 1138 	CALL	MOVER
                                   1139 ;BASIC/8BP.h:708: }
    000003BC E1               [10] 1140 	pop	hl
    000003BD F1               [10] 1141 	pop	af
    000003BE E9               [ 4] 1142 	jp	(hl)
                                   1143 ;BASIC/8BP.h:709: void _8BP_mover_3(int sp, int dy,int dx)
                                   1144 ;	---------------------------------
                                   1145 ; Function _8BP_mover_3
                                   1146 ; ---------------------------------
    000003BF                       1147 __8BP_mover_3::
                                   1148 ;BASIC/8BP.h:711: _8BP_mover_inv3(dx,dy,sp);
    000003BF E5               [11] 1149 	push	hl
    000003C0 21 04 00         [10] 1150 	ld	hl, #4
    000003C3 39               [11] 1151 	add	hl, sp
    000003C4 7E               [ 7] 1152 	ld	a, (hl)
    000003C5 23               [ 6] 1153 	inc	hl
    000003C6 66               [ 7] 1154 	ld	h, (hl)
    000003C7 6F               [ 4] 1155 	ld	l, a
    000003C8 CDrB1r03         [17] 1156 	call	__8BP_mover_inv3
                                   1157 ;BASIC/8BP.h:712: }
    000003CB E1               [10] 1158 	pop	hl
    000003CC F1               [10] 1159 	pop	af
    000003CD E9               [ 4] 1160 	jp	(hl)
                                   1161 ;BASIC/8BP.h:713: void _8BP_mover_1(int sp)
                                   1162 ;	---------------------------------
                                   1163 ; Function _8BP_mover_1
                                   1164 ; ---------------------------------
    000003CE                       1165 __8BP_mover_1::
                                   1166 ;BASIC/8BP.h:720: __endasm;	
    000003CE 3E 01            [ 7] 1167 	ld	a,#1
    000003D0 DD 21 02 00      [14] 1168 	ld	ix,#2 ;posicion primer parametro 
    000003D4 DD 39            [15] 1169 	add ix,sp;
    000003D6 CD 35 75         [17] 1170 	CALL	MOVER
                                   1171 ;BASIC/8BP.h:723: }
    000003D9 C9               [10] 1172 	ret
                                   1173 ;BASIC/8BP.h:724: void _8BP_moverall_inv2(int dx, int dy)
                                   1174 ;	---------------------------------
                                   1175 ; Function _8BP_moverall_inv2
                                   1176 ; ---------------------------------
    000003DA                       1177 __8BP_moverall_inv2::
                                   1178 ;BASIC/8BP.h:731: __endasm;	
    000003DA 3E 02            [ 7] 1179 	ld	a,#2
    000003DC DD 21 02 00      [14] 1180 	ld	ix,#2 ;posicion primer parametro 
    000003E0 DD 39            [15] 1181 	add ix,sp;
    000003E2 CD E7 76         [17] 1182 	CALL	MOVERALL
                                   1183 ;BASIC/8BP.h:733: }
    000003E5 C9               [10] 1184 	ret
                                   1185 ;BASIC/8BP.h:734: void _8BP_moverall_2(int dy, int dx)
                                   1186 ;	---------------------------------
                                   1187 ; Function _8BP_moverall_2
                                   1188 ; ---------------------------------
    000003E6                       1189 __8BP_moverall_2::
    000003E6 7B               [ 4] 1190 	ld	a, e
    000003E7 4A               [ 4] 1191 	ld	c, d
                                   1192 ;BASIC/8BP.h:736: _8BP_moverall_2(dx,dy);
    000003E8 EB               [ 4] 1193 	ex	de, hl
    000003E9 6F               [ 4] 1194 	ld	l, a
    000003EA 61               [ 4] 1195 	ld	h, c
                                   1196 ;BASIC/8BP.h:737: }
    000003EB 18 F9            [12] 1197 	jr	__8BP_moverall_2
                                   1198 ;BASIC/8BP.h:739: void _8BP_moverall()
                                   1199 ;	---------------------------------
                                   1200 ; Function _8BP_moverall
                                   1201 ; ---------------------------------
    000003ED                       1202 __8BP_moverall::
                                   1203 ;BASIC/8BP.h:744: __endasm;	
    000003ED 3E 00            [ 7] 1204 	ld	a,#0
    000003EF CD E7 76         [17] 1205 	CALL	MOVERALL
                                   1206 ;BASIC/8BP.h:746: }
    000003F2 C9               [10] 1207 	ret
                                   1208 ;BASIC/8BP.h:748: void _8BP_peek_2(int address, int* dato)
                                   1209 ;	---------------------------------
                                   1210 ; Function _8BP_peek_2
                                   1211 ; ---------------------------------
    000003F3                       1212 __8BP_peek_2::
                                   1213 ;BASIC/8BP.h:751: p=(int *)address;	
                                   1214 ;BASIC/8BP.h:752: *dato=*p; //mas facil imposible
    000003F3 4E               [ 7] 1215 	ld	c, (hl)
    000003F4 23               [ 6] 1216 	inc	hl
    000003F5 46               [ 7] 1217 	ld	b, (hl)
    000003F6 79               [ 4] 1218 	ld	a, c
    000003F7 12               [ 7] 1219 	ld	(de), a
    000003F8 13               [ 6] 1220 	inc	de
    000003F9 78               [ 4] 1221 	ld	a, b
    000003FA 12               [ 7] 1222 	ld	(de), a
                                   1223 ;BASIC/8BP.h:753: }
    000003FB C9               [10] 1224 	ret
                                   1225 ;BASIC/8BP.h:755: void _8BP_poke_2(int address,int dato)
                                   1226 ;	---------------------------------
                                   1227 ; Function _8BP_poke_2
                                   1228 ; ---------------------------------
    000003FC                       1229 __8BP_poke_2::
                                   1230 ;BASIC/8BP.h:758: p=(int *)address;
                                   1231 ;BASIC/8BP.h:759: *p=dato; //mas facil imposible
    000003FC 73               [ 7] 1232 	ld	(hl), e
    000003FD 23               [ 6] 1233 	inc	hl
    000003FE 72               [ 7] 1234 	ld	(hl), d
                                   1235 ;BASIC/8BP.h:760: }
    000003FF C9               [10] 1236 	ret
                                   1237 ;BASIC/8BP.h:763: void _8BP_rink_1(int step)
                                   1238 ;	---------------------------------
                                   1239 ; Function _8BP_rink_1
                                   1240 ; ---------------------------------
    00000400                       1241 __8BP_rink_1::
                                   1242 ;BASIC/8BP.h:770: __endasm;	
    00000400 3E 01            [ 7] 1243 	ld	a,#1
    00000402 DD 21 02 00      [14] 1244 	ld	ix,#2 ;posicion primer parametro 
    00000406 DD 39            [15] 1245 	add ix,sp;
    00000408 CD 27 76         [17] 1246 	CALL	RINK
                                   1247 ;BASIC/8BP.h:771: }
    0000040B C9               [10] 1248 	ret
                                   1249 ;BASIC/8BP.h:775: void _8BP_rink_N(int num_params,int* ink_list)
                                   1250 ;	---------------------------------
                                   1251 ; Function _8BP_rink_N
                                   1252 ; ---------------------------------
    0000040C                       1253 __8BP_rink_N::
    0000040C F5               [11] 1254 	push	af
    0000040D F5               [11] 1255 	push	af
    0000040E F5               [11] 1256 	push	af
    0000040F E5               [11] 1257 	push	hl
    00000410 7D               [ 4] 1258 	ld	a, l
    00000411 FD 21 06 00      [14] 1259 	ld	iy, #6
    00000415 FD 39            [15] 1260 	add	iy, sp
    00000417 FD 77 00         [19] 1261 	ld	0 (iy), a
    0000041A E1               [10] 1262 	pop	hl
    0000041B FD 74 01         [19] 1263 	ld	1 (iy), h
    0000041E FD 2B            [10] 1264 	dec	iy
    00000420 FD 2B            [10] 1265 	dec	iy
    00000422 FD 73 00         [19] 1266 	ld	0 (iy), e
    00000425 FD 72 01         [19] 1267 	ld	1 (iy), d
                                   1268 ;BASIC/8BP.h:781: _8BP_rink_N_color1=num_params;
    00000428 FD 7E 02         [19] 1269 	ld	a, 2 (iy)
    0000042B FD 23            [10] 1270 	inc	iy
    0000042D FD 23            [10] 1271 	inc	iy
    0000042F 32r00r00         [13] 1272 	ld	(__8BP_rink_N_color1+0), a
                                   1273 ;BASIC/8BP.h:784: for (i=0;i<num_params;i++)
    00000432 01 00 00         [10] 1274 	ld	bc, #0x0000
    00000435                       1275 00103$:
    00000435 21 04 00         [10] 1276 	ld	hl, #4
    00000438 39               [11] 1277 	add	hl, sp
    00000439 79               [ 4] 1278 	ld	a, c
    0000043A 96               [ 7] 1279 	sub	a, (hl)
    0000043B 23               [ 6] 1280 	inc	hl
    0000043C 78               [ 4] 1281 	ld	a, b
    0000043D 9E               [ 7] 1282 	sbc	a, (hl)
    0000043E E2r43r04         [10] 1283 	jp	PO, 00122$
    00000441 EE 80            [ 7] 1284 	xor	a, #0x80
    00000443                       1285 00122$:
    00000443 F2r82r04         [10] 1286 	jp	P, 00101$
                                   1287 ;BASIC/8BP.h:785: _8BP_rink_N_inverse_list[i]=ink_list[num_params-i-1];
    00000446 79               [ 4] 1288 	ld	a, c
    00000447 58               [ 4] 1289 	ld	e, b
    00000448 87               [ 4] 1290 	add	a, a
    00000449 CB 13            [ 8] 1291 	rl	e
    0000044B 21 00 00         [10] 1292 	ld	hl, #0
    0000044E 39               [11] 1293 	add	hl, sp
    0000044F C6r01            [ 7] 1294 	add	a, #<(__8BP_rink_N_inverse_list)
    00000451 77               [ 7] 1295 	ld	(hl), a
    00000452 23               [ 6] 1296 	inc	hl
    00000453 7B               [ 4] 1297 	ld	a, e
    00000454 CEs00            [ 7] 1298 	adc	a, #>(__8BP_rink_N_inverse_list)
    00000456 77               [ 7] 1299 	ld	(hl), a
    00000457 FD 21 04 00      [14] 1300 	ld	iy, #4
    0000045B FD 39            [15] 1301 	add	iy, sp
    0000045D FD 7E 00         [19] 1302 	ld	a, 0 (iy)
    00000460 91               [ 4] 1303 	sub	a, c
    00000461 5F               [ 4] 1304 	ld	e, a
    00000462 FD 7E 01         [19] 1305 	ld	a, 1 (iy)
    00000465 98               [ 4] 1306 	sbc	a, b
    00000466 57               [ 4] 1307 	ld	d, a
    00000467 1B               [ 6] 1308 	dec	de
    00000468 7B               [ 4] 1309 	ld	a, e
    00000469 87               [ 4] 1310 	add	a, a
    0000046A CB 12            [ 8] 1311 	rl	d
    0000046C 21 02 00         [10] 1312 	ld	hl, #2
    0000046F 39               [11] 1313 	add	hl, sp
    00000470 86               [ 7] 1314 	add	a, (hl)
    00000471 23               [ 6] 1315 	inc	hl
    00000472 5F               [ 4] 1316 	ld	e, a
    00000473 7A               [ 4] 1317 	ld	a, d
    00000474 8E               [ 7] 1318 	adc	a, (hl)
    00000475 67               [ 4] 1319 	ld	h, a
    00000476 6B               [ 4] 1320 	ld	l, e
    00000477 5E               [ 7] 1321 	ld	e, (hl)
    00000478 23               [ 6] 1322 	inc	hl
    00000479 56               [ 7] 1323 	ld	d, (hl)
    0000047A E1               [10] 1324 	pop	hl
    0000047B E5               [11] 1325 	push	hl
    0000047C 73               [ 7] 1326 	ld	(hl), e
    0000047D 23               [ 6] 1327 	inc	hl
    0000047E 72               [ 7] 1328 	ld	(hl), d
                                   1329 ;BASIC/8BP.h:784: for (i=0;i<num_params;i++)
    0000047F 03               [ 6] 1330 	inc	bc
    00000480 18 B3            [12] 1331 	jr	00103$
    00000482                       1332 00101$:
                                   1333 ;BASIC/8BP.h:794: __endasm;	
    00000482 21r00r00         [10] 1334 	ld	hl, #__8BP_rink_N_color1;
    00000485 7E               [ 7] 1335 	ld	a,(hl)
    00000486 DD 21r01r00      [14] 1336 	ld	ix, #__8BP_rink_N_inverse_list;
    0000048A CD 27 76         [17] 1337 	CALL	RINK
                                   1338 ;BASIC/8BP.h:795: }
    0000048D F1               [10] 1339 	pop	af
    0000048E F1               [10] 1340 	pop	af
    0000048F F1               [10] 1341 	pop	af
    00000490 C9               [10] 1342 	ret
                                   1343 ;BASIC/8BP.h:797: void _8BP_umap_inv6(int x_fin,int x_ini, int y_fin, int y_ini, int map_fin, int map_ini)
                                   1344 ;	---------------------------------
                                   1345 ; Function _8BP_umap_inv6
                                   1346 ; ---------------------------------
    00000491                       1347 __8BP_umap_inv6::
                                   1348 ;BASIC/8BP.h:804: __endasm;	
    00000491 3E 06            [ 7] 1349 	ld	a,#6
    00000493 DD 21 02 00      [14] 1350 	ld	ix,#2 ;posicion primer parametro 
    00000497 DD 39            [15] 1351 	add ix,sp;
    00000499 CD 4A 5F         [17] 1352 	CALL	UMAP
                                   1353 ;BASIC/8BP.h:807: }
    0000049C E1               [10] 1354 	pop	hl
    0000049D F1               [10] 1355 	pop	af
    0000049E F1               [10] 1356 	pop	af
    0000049F F1               [10] 1357 	pop	af
    000004A0 F1               [10] 1358 	pop	af
    000004A1 E9               [ 4] 1359 	jp	(hl)
                                   1360 ;BASIC/8BP.h:809: void _8BP_umap_6(int map_ini, int map_fin, int y_ini, int y_fin, int x_ini, int x_fin)
                                   1361 ;	---------------------------------
                                   1362 ; Function _8BP_umap_6
                                   1363 ; ---------------------------------
    000004A2                       1364 __8BP_umap_6::
                                   1365 ;BASIC/8BP.h:811: _8BP_umap_inv6(x_fin,x_ini,y_fin,y_ini, map_fin, map_ini);
    000004A2 E5               [11] 1366 	push	hl
    000004A3 D5               [11] 1367 	push	de
    000004A4 FD 21 06 00      [14] 1368 	ld	iy, #6
    000004A8 FD 39            [15] 1369 	add	iy, sp
    000004AA FD 6E 00         [19] 1370 	ld	l, 0 (iy)
    000004AD FD 66 01         [19] 1371 	ld	h, 1 (iy)
    000004B0 E5               [11] 1372 	push	hl
    000004B1 FD 6E 02         [19] 1373 	ld	l, 2 (iy)
    000004B4 FD 66 03         [19] 1374 	ld	h, 3 (iy)
    000004B7 FD 23            [10] 1375 	inc	iy
    000004B9 FD 23            [10] 1376 	inc	iy
    000004BB E5               [11] 1377 	push	hl
    000004BC FD 5E 02         [19] 1378 	ld	e, 2 (iy)
    000004BF FD 56 03         [19] 1379 	ld	d, 3 (iy)
    000004C2 FD 6E 04         [19] 1380 	ld	l, 4 (iy)
    000004C5 FD 66 05         [19] 1381 	ld	h, 5 (iy)
    000004C8 CDr91r04         [17] 1382 	call	__8BP_umap_inv6
                                   1383 ;BASIC/8BP.h:813: }
    000004CB E1               [10] 1384 	pop	hl
    000004CC F1               [10] 1385 	pop	af
    000004CD F1               [10] 1386 	pop	af
    000004CE F1               [10] 1387 	pop	af
    000004CF F1               [10] 1388 	pop	af
    000004D0 E9               [ 4] 1389 	jp	(hl)
                                   1390 ;mini_BASIC/minibasic.h:55: unsigned int _basic_time()
                                   1391 ;	---------------------------------
                                   1392 ; Function _basic_time
                                   1393 ; ---------------------------------
    000004D1                       1394 __basic_time::
                                   1395 ;mini_BASIC/minibasic.h:60: __endasm;
    000004D1 CD 0D BD         [17] 1396 	call	0xbd0d
    000004D4 C9               [10] 1397 	ret
                                   1398 ;mini_BASIC/minibasic.h:62: return 0;
    000004D5 11 00 00         [10] 1399 	ld	de, #0x0000
                                   1400 ;mini_BASIC/minibasic.h:64: }
    000004D8 C9               [10] 1401 	ret
                                   1402 ;mini_BASIC/minibasic.h:67: unsigned int _basic_rnd(int max)
                                   1403 ;	---------------------------------
                                   1404 ; Function _basic_rnd
                                   1405 ; ---------------------------------
    000004D9                       1406 __basic_rnd::
    000004D9 EB               [ 4] 1407 	ex	de, hl
                                   1408 ;mini_BASIC/minibasic.h:80: __endasm;
    000004DA CD 0D BD         [17] 1409 	call	0xbd0d
    000004DD 44               [ 4] 1410 	ld	b,h
    000004DE 4D               [ 4] 1411 	ld	c, l
    000004DF 21r00r00         [10] 1412 	ld	hl,#__basic_rnd_x; con el # es direccion, el _ es imprescindible en cualquier caso
    000004E2 71               [ 7] 1413 	ld	(hl),c
    000004E3 23               [ 6] 1414 	inc	hl
    000004E4 70               [ 7] 1415 	ld	(hl),b
                                   1416 ;mini_BASIC/minibasic.h:82: return _basic_rnd_x % max;	
    000004E5 2Ar00r00         [16] 1417 	ld	hl, (__basic_rnd_x)
                                   1418 ;mini_BASIC/minibasic.h:86: }
    000004E8 C3r00r00         [10] 1419 	jp	__moduint
                                   1420 ;mini_BASIC/minibasic.h:88: void _basic_border(char color) 
                                   1421 ;	---------------------------------
                                   1422 ; Function _basic_border
                                   1423 ; ---------------------------------
    000004EB                       1424 __basic_border::
                                   1425 ;mini_BASIC/minibasic.h:101: __endasm;	
                                   1426 ;	recoge primer parametro
                                   1427 ;------------------------
    000004EB DD 21 02 00      [14] 1428 	ld	ix,#2; posicion primer parametro 
    000004EF DD 39            [15] 1429 	add ix,sp;
    000004F1 DD 7E 00         [19] 1430 	ld	a,(ix)
    000004F4 47               [ 4] 1431 	ld	b, a
    000004F5 4F               [ 4] 1432 	ld	c, a
    000004F6 CD 38 BC         [17] 1433 	call	0xbc38
                                   1434 ;mini_BASIC/minibasic.h:102: }
    000004F9 C9               [10] 1435 	ret
                                   1436 ;mini_BASIC/minibasic.h:106: void DisplayChar( char c )
                                   1437 ;	---------------------------------
                                   1438 ; Function DisplayChar
                                   1439 ; ---------------------------------
    000004FA                       1440 _DisplayChar::
                                   1441 ;mini_BASIC/minibasic.h:117: __endasm;
    000004FA 21 02 00         [10] 1442 	ld	hl,#2; recoge primer parametro
    000004FD 39               [11] 1443 	add	hl,sp
    000004FE 7E               [ 7] 1444 	ld	a,(hl)
    000004FF CD 5A BB         [17] 1445 	call	0xbb5a
                                   1446 ;mini_BASIC/minibasic.h:118: }
    00000502 C9               [10] 1447 	ret
                                   1448 ;mini_BASIC/minibasic.h:121: void _basic_print(char *cad)
                                   1449 ;	---------------------------------
                                   1450 ; Function _basic_print
                                   1451 ; ---------------------------------
    00000503                       1452 __basic_print::
                                   1453 ;mini_BASIC/minibasic.h:126: while( *textPtr != 0 )
    00000503                       1454 00101$:
    00000503 7E               [ 7] 1455 	ld	a, (hl)
    00000504 B7               [ 4] 1456 	or	a, a
    00000505 C8               [11] 1457 	ret	Z
                                   1458 ;mini_BASIC/minibasic.h:128: DisplayChar( *textPtr);
    00000506 E5               [11] 1459 	push	hl
    00000507 CDrFAr04         [17] 1460 	call	_DisplayChar
    0000050A E1               [10] 1461 	pop	hl
                                   1462 ;mini_BASIC/minibasic.h:129: textPtr++;
    0000050B 23               [ 6] 1463 	inc	hl
                                   1464 ;mini_BASIC/minibasic.h:131: } 
    0000050C 18 F5            [12] 1465 	jr	00101$
                                   1466 ;mini_BASIC/minibasic.h:133: char _basic_inkey(char key) __naked 
                                   1467 ;	---------------------------------
                                   1468 ; Function _basic_inkey
                                   1469 ; ---------------------------------
    0000050E                       1470 __basic_inkey::
                                   1471 ;mini_BASIC/minibasic.h:152: __endasm;
    0000050E DD 21 02 00      [14] 1472 	ld	ix,#2; posicion primer parametro 
    00000512 DD 39            [15] 1473 	add ix,sp;
    00000514 DD 7E 00         [19] 1474 	ld	a, (ix)
    00000517 CD 1E BB         [17] 1475 	CALL	0xBB1E
    0000051A 20 03            [12] 1476 	jr	nz, pressed
    0000051C 2E 01            [ 7] 1477 	ld	l,#1
    0000051E C9               [10] 1478 	ret
    0000051F                       1479 pressed:
    0000051F 2E 00            [ 7] 1480 	ld	l,#0
    00000521 C9               [10] 1481 	ret
                                   1482 ;mini_BASIC/minibasic.h:154: return 0;
    00000522 AF               [ 4] 1483 	xor	a, a
                                   1484 ;mini_BASIC/minibasic.h:157: }
                                   1485 ;mini_BASIC/minibasic.h:165: char* reverse(char *buffer, int i, int j)
                                   1486 ;	---------------------------------
                                   1487 ; Function reverse
                                   1488 ; ---------------------------------
    00000523                       1489 _reverse::
    00000523 F5               [11] 1490 	push	af
    00000524 3B               [ 6] 1491 	dec	sp
    00000525 E5               [11] 1492 	push	hl
    00000526 7D               [ 4] 1493 	ld	a, l
    00000527 FD 21 03 00      [14] 1494 	ld	iy, #3
    0000052B FD 39            [15] 1495 	add	iy, sp
    0000052D FD 77 00         [19] 1496 	ld	0 (iy), a
    00000530 E1               [10] 1497 	pop	hl
    00000531 FD 74 01         [19] 1498 	ld	1 (iy), h
                                   1499 ;mini_BASIC/minibasic.h:167: while (i < j)
    00000534                       1500 00101$:
    00000534 21 05 00         [10] 1501 	ld	hl, #5
    00000537 39               [11] 1502 	add	hl, sp
    00000538 7B               [ 4] 1503 	ld	a, e
    00000539 96               [ 7] 1504 	sub	a, (hl)
    0000053A 23               [ 6] 1505 	inc	hl
    0000053B 7A               [ 4] 1506 	ld	a, d
    0000053C 9E               [ 7] 1507 	sbc	a, (hl)
    0000053D E2r42r05         [10] 1508 	jp	PO, 00122$
    00000540 EE 80            [ 7] 1509 	xor	a, #0x80
    00000542                       1510 00122$:
    00000542 F2r7Fr05         [10] 1511 	jp	P, 00103$
                                   1512 ;mini_BASIC/minibasic.h:168: swap(&buffer[i++], &buffer[j--]);
    00000545 21 05 00         [10] 1513 	ld	hl, #5
    00000548 39               [11] 1514 	add	hl, sp
    00000549 FD 21 01 00      [14] 1515 	ld	iy, #1
    0000054D FD 39            [15] 1516 	add	iy, sp
    0000054F FD 7E 00         [19] 1517 	ld	a, 0 (iy)
    00000552 86               [ 7] 1518 	add	a, (hl)
    00000553 4F               [ 4] 1519 	ld	c, a
    00000554 FD 7E 01         [19] 1520 	ld	a, 1 (iy)
    00000557 23               [ 6] 1521 	inc	hl
    00000558 8E               [ 7] 1522 	adc	a, (hl)
    00000559 47               [ 4] 1523 	ld	b, a
    0000055A 21 05 00         [10] 1524 	ld	hl, #5
    0000055D 39               [11] 1525 	add	hl, sp
    0000055E 7E               [ 7] 1526 	ld	a, (hl)
    0000055F C6 FF            [ 7] 1527 	add	a, #0xff
    00000561 77               [ 7] 1528 	ld	(hl), a
    00000562 23               [ 6] 1529 	inc	hl
    00000563 7E               [ 7] 1530 	ld	a, (hl)
    00000564 CE FF            [ 7] 1531 	adc	a, #0xff
    00000566 77               [ 7] 1532 	ld	(hl), a
    00000567 FD 6E 00         [19] 1533 	ld	l, 0 (iy)
    0000056A FD 66 01         [19] 1534 	ld	h, 1 (iy)
    0000056D 19               [11] 1535 	add	hl, de
    0000056E 13               [ 6] 1536 	inc	de
                                   1537 ;mini_BASIC/minibasic.h:161: char t = *x; *x = *y; *y = t;
    0000056F 7E               [ 7] 1538 	ld	a, (hl)
    00000570 E5               [11] 1539 	push	hl
    00000571 FD 2B            [10] 1540 	dec	iy
    00000573 FD 77 00         [19] 1541 	ld	0 (iy), a
    00000576 E1               [10] 1542 	pop	hl
    00000577 0A               [ 7] 1543 	ld	a, (bc)
    00000578 77               [ 7] 1544 	ld	(hl), a
    00000579 FD 7E 00         [19] 1545 	ld	a, 0 (iy)
    0000057C 02               [ 7] 1546 	ld	(bc), a
                                   1547 ;mini_BASIC/minibasic.h:168: swap(&buffer[i++], &buffer[j--]);
    0000057D 18 B5            [12] 1548 	jr	00101$
    0000057F                       1549 00103$:
                                   1550 ;mini_BASIC/minibasic.h:170: return buffer;
    0000057F FD 21 01 00      [14] 1551 	ld	iy, #1
    00000583 FD 39            [15] 1552 	add	iy, sp
    00000585 FD 5E 00         [19] 1553 	ld	e, 0 (iy)
    00000588 FD 56 01         [19] 1554 	ld	d, 1 (iy)
                                   1555 ;mini_BASIC/minibasic.h:171: }
    0000058B F1               [10] 1556 	pop	af
    0000058C 33               [ 6] 1557 	inc	sp
    0000058D E1               [10] 1558 	pop	hl
    0000058E F1               [10] 1559 	pop	af
    0000058F E9               [ 4] 1560 	jp	(hl)
                                   1561 ;mini_BASIC/minibasic.h:173: char* _basic_str(int value) 
                                   1562 ;	---------------------------------
                                   1563 ; Function _basic_str
                                   1564 ; ---------------------------------
    00000590                       1565 __basic_str::
    00000590 F5               [11] 1566 	push	af
    00000591 F5               [11] 1567 	push	af
    00000592 F5               [11] 1568 	push	af
                                   1569 ;mini_BASIC/minibasic.h:178: int n = abs(value);
    00000593 4D               [ 4] 1570 	ld	c,l
    00000594 44               [ 4] 1571 	ld	b,h
    00000595 CDr00r00         [17] 1572 	call	_abs
    00000598 33               [ 6] 1573 	inc	sp
    00000599 33               [ 6] 1574 	inc	sp
    0000059A D5               [11] 1575 	push	de
                                   1576 ;mini_BASIC/minibasic.h:181: while (n)
    0000059B AF               [ 4] 1577 	xor	a, a
    0000059C FD 21 02 00      [14] 1578 	ld	iy, #2
    000005A0 FD 39            [15] 1579 	add	iy, sp
    000005A2 FD 77 00         [19] 1580 	ld	0 (iy), a
    000005A5 FD 77 01         [19] 1581 	ld	1 (iy), a
    000005A8                       1582 00101$:
                                   1583 ;mini_BASIC/minibasic.h:185: buffer[i++] = 48 + r ;
    000005A8 21 04 00         [10] 1584 	ld	hl, #4
    000005AB 39               [11] 1585 	add	hl, sp
    000005AC FD 21 02 00      [14] 1586 	ld	iy, #2
    000005B0 FD 39            [15] 1587 	add	iy, sp
    000005B2 FD 7E 00         [19] 1588 	ld	a, 0 (iy)
    000005B5 C6 01            [ 7] 1589 	add	a, #0x01
    000005B7 77               [ 7] 1590 	ld	(hl), a
    000005B8 FD 7E 01         [19] 1591 	ld	a, 1 (iy)
    000005BB 23               [ 6] 1592 	inc	hl
    000005BC CE 00            [ 7] 1593 	adc	a, #0x00
    000005BE 77               [ 7] 1594 	ld	(hl), a
    000005BF 3Er23            [ 7] 1595 	ld	a, #<(__basic_str_buffer_10000_282)
    000005C1 FD 86 00         [19] 1596 	add	a, 0 (iy)
    000005C4 F5               [11] 1597 	push	af
    000005C5 3Es00            [ 7] 1598 	ld	a, #>(__basic_str_buffer_10000_282)
    000005C7 FD 8E 01         [19] 1599 	adc	a, 1 (iy)
    000005CA 67               [ 4] 1600 	ld	h, a
    000005CB F1               [10] 1601 	pop	af
    000005CC 6F               [ 4] 1602 	ld	l, a
                                   1603 ;mini_BASIC/minibasic.h:181: while (n)
    000005CD FD 7E FF         [19] 1604 	ld	a, -1 (iy)
    000005D0 FD 2B            [10] 1605 	dec	iy
    000005D2 FD 2B            [10] 1606 	dec	iy
    000005D4 FD B6 00         [19] 1607 	or	a, 0 (iy)
    000005D7 28 46            [12] 1608 	jr	Z, 00114$
                                   1609 ;mini_BASIC/minibasic.h:183: int r = n % 10;
    000005D9 E5               [11] 1610 	push	hl
    000005DA C5               [11] 1611 	push	bc
    000005DB 11 0A 00         [10] 1612 	ld	de, #0x000a
    000005DE FD 6E 00         [19] 1613 	ld	l, 0 (iy)
    000005E1 FD 66 01         [19] 1614 	ld	h, 1 (iy)
                                   1615 ;mini_BASIC/minibasic.h:185: buffer[i++] = 48 + r ;
    000005E4 CDr00r00         [17] 1616 	call	__modsint
    000005E7 C1               [10] 1617 	pop	bc
    000005E8 FD 21 06 00      [14] 1618 	ld	iy, #6
    000005EC FD 39            [15] 1619 	add	iy, sp
    000005EE FD 7E 00         [19] 1620 	ld	a, 0 (iy)
    000005F1 FD 2B            [10] 1621 	dec	iy
    000005F3 FD 2B            [10] 1622 	dec	iy
    000005F5 FD 77 00         [19] 1623 	ld	0 (iy), a
    000005F8 FD 7E 03         [19] 1624 	ld	a, 3 (iy)
    000005FB FD 77 01         [19] 1625 	ld	1 (iy), a
    000005FE E1               [10] 1626 	pop	hl
    000005FF 7B               [ 4] 1627 	ld	a, e
    00000600 C6 30            [ 7] 1628 	add	a, #0x30
    00000602 77               [ 7] 1629 	ld	(hl), a
                                   1630 ;mini_BASIC/minibasic.h:187: n = n / 10;
    00000603 C5               [11] 1631 	push	bc
    00000604 11 0A 00         [10] 1632 	ld	de, #0x000a
    00000607 FD 6E FE         [19] 1633 	ld	l, -2 (iy)
    0000060A FD 66 FF         [19] 1634 	ld	h, -1 (iy)
    0000060D CDr00r00         [17] 1635 	call	__divsint
    00000610 FD 21 02 00      [14] 1636 	ld	iy, #2
    00000614 FD 39            [15] 1637 	add	iy, sp
    00000616 FD 73 00         [19] 1638 	ld	0 (iy), e
    00000619 FD 72 01         [19] 1639 	ld	1 (iy), d
    0000061C C1               [10] 1640 	pop	bc
    0000061D 18 89            [12] 1641 	jr	00101$
    0000061F                       1642 00114$:
    0000061F E5               [11] 1643 	push	hl
    00000620 FD 21 04 00      [14] 1644 	ld	iy, #4
    00000624 FD 39            [15] 1645 	add	iy, sp
    00000626 FD 5E 00         [19] 1646 	ld	e, 0 (iy)
    00000629 FD 56 01         [19] 1647 	ld	d, 1 (iy)
    0000062C E1               [10] 1648 	pop	hl
                                   1649 ;mini_BASIC/minibasic.h:191: if (i == 0)
    0000062D FD 7E 01         [19] 1650 	ld	a, 1 (iy)
    00000630 FD B6 00         [19] 1651 	or	a, 0 (iy)
    00000633 20 0A            [12] 1652 	jr	NZ, 00105$
                                   1653 ;mini_BASIC/minibasic.h:192: buffer[i++] = '0';
    00000635 E5               [11] 1654 	push	hl
    00000636 FD 5E 02         [19] 1655 	ld	e, 2 (iy)
    00000639 FD 56 03         [19] 1656 	ld	d, 3 (iy)
    0000063C E1               [10] 1657 	pop	hl
    0000063D 36 30            [10] 1658 	ld	(hl), #0x30
    0000063F                       1659 00105$:
                                   1660 ;mini_BASIC/minibasic.h:196: if (value < 0 )
    0000063F CB 78            [ 8] 1661 	bit	7, b
    00000641 28 09            [12] 1662 	jr	Z, 00107$
                                   1663 ;mini_BASIC/minibasic.h:197: buffer[i++] = '-';
    00000643 4B               [ 4] 1664 	ld	c, e
    00000644 42               [ 4] 1665 	ld	b, d
    00000645 13               [ 6] 1666 	inc	de
    00000646 21r23r00         [10] 1667 	ld	hl, #__basic_str_buffer_10000_282
    00000649 09               [11] 1668 	add	hl, bc
    0000064A 36 2D            [10] 1669 	ld	(hl), #0x2d
    0000064C                       1670 00107$:
                                   1671 ;mini_BASIC/minibasic.h:199: buffer[i] = 0; // null terminate string
    0000064C 21r23r00         [10] 1672 	ld	hl, #__basic_str_buffer_10000_282
    0000064F 19               [11] 1673 	add	hl, de
    00000650 36 00            [10] 1674 	ld	(hl), #0x00
                                   1675 ;mini_BASIC/minibasic.h:202: return reverse(buffer, 0, i - 1);
    00000652 1B               [ 6] 1676 	dec	de
    00000653 D5               [11] 1677 	push	de
    00000654 11 00 00         [10] 1678 	ld	de, #0x0000
    00000657 21r23r00         [10] 1679 	ld	hl, #__basic_str_buffer_10000_282
    0000065A CDr23r05         [17] 1680 	call	_reverse
                                   1681 ;mini_BASIC/minibasic.h:203: }
    0000065D F1               [10] 1682 	pop	af
    0000065E F1               [10] 1683 	pop	af
    0000065F F1               [10] 1684 	pop	af
    00000660 C9               [10] 1685 	ret
                                   1686 ;mini_BASIC/minibasic.h:205: void _basic_call (unsigned int address) 
                                   1687 ;	---------------------------------
                                   1688 ; Function _basic_call
                                   1689 ; ---------------------------------
    00000661                       1690 __basic_call::
                                   1691 ;mini_BASIC/minibasic.h:215: __endasm;	
    00000661 DD 21 02 00      [14] 1692 	ld	ix,#2; posicion primer parametro 
    00000665 DD 39            [15] 1693 	add ix,sp;
    00000667 DD 6E 00         [19] 1694 	ld	l, (ix)
    0000066A DD 66 01         [19] 1695 	ld	h, 1(ix)
    0000066D 22r71r06         [16] 1696 	ld	(dir+1),hl
    00000670                       1697 dir:
    00000670 CD 19 BD         [17] 1698 	CALL 0xbd19 ; la direccion 0xbd19 se machaca con la que venga
                                   1699 ;mini_BASIC/minibasic.h:217: }
    00000673 C9               [10] 1700 	ret
                                   1701 ;mini_BASIC/minibasic.h:219: void _basic_locate (unsigned int x, unsigned int y) 
                                   1702 ;	---------------------------------
                                   1703 ; Function _basic_locate
                                   1704 ; ---------------------------------
    00000674                       1705 __basic_locate::
                                   1706 ;mini_BASIC/minibasic.h:227: __endasm;	
    00000674 DD 21 02 00      [14] 1707 	ld	ix,#2; posicion primer parametro 
    00000678 DD 39            [15] 1708 	add ix,sp;
    0000067A DD 6E 02         [19] 1709 	ld	l, 2(ix)
    0000067D DD 66 00         [19] 1710 	ld	h, (ix)
    00000680 CD 75 BB         [17] 1711 	call	0xbb75
                                   1712 ;mini_BASIC/minibasic.h:229: }
    00000683 C9               [10] 1713 	ret
                                   1714 ;mini_BASIC/minibasic.h:251: void _basic_sound(unsigned char nChannelStatus, int nTonePeriod, int nDuration, unsigned char nVolume, char nVolumeEnvelope, char nToneEnvelope, unsigned char nNoisePeriod) 
                                   1715 ;	---------------------------------
                                   1716 ; Function _basic_sound
                                   1717 ; ---------------------------------
    00000684                       1718 __basic_sound::
                                   1719 ;mini_BASIC/minibasic.h:330: __endasm;
    00000684 DD 21 02 00      [14] 1720 	ld	ix,#2;
    00000688 DD 39            [15] 1721 	add	ix,sp;
    0000068A 21 DE D7         [10] 1722 	LD	HL, #0xd7de
    0000068D DD 7E 00         [19] 1723 	LD	A, (IX) ;nChannelStatus
    00000690 77               [ 7] 1724 	LD	(HL), A
    00000691 23               [ 6] 1725 	INC	HL
    00000692 DD 7E 06         [19] 1726 	LD	A,6 (IX) ;nVolumeEnvelope
    00000695 77               [ 7] 1727 	LD	(HL), A
    00000696 23               [ 6] 1728 	INC	HL
    00000697 DD 7E 07         [19] 1729 	LD	A, 7 (IX) ;nToneEnvelope
    0000069A 77               [ 7] 1730 	LD	(HL), A
    0000069B 23               [ 6] 1731 	INC	HL
    0000069C DD 7E 01         [19] 1732 	LD	A, 1 (IX) ;nTonePeriod
    0000069F 77               [ 7] 1733 	LD	(HL), A
    000006A0 23               [ 6] 1734 	INC	HL
    000006A1 DD 7E 02         [19] 1735 	LD	A, 2 (IX) ;nTonePeriod
    000006A4 77               [ 7] 1736 	LD	(HL), A
    000006A5 23               [ 6] 1737 	INC	HL
    000006A6 DD 7E 08         [19] 1738 	LD	A, 8 (IX) ;nNoisePeriod
    000006A9 77               [ 7] 1739 	LD	(HL), A
    000006AA 23               [ 6] 1740 	INC	HL
    000006AB DD 7E 05         [19] 1741 	LD	A, 5 (IX) ;nVolume
    000006AE 77               [ 7] 1742 	LD	(HL), A
    000006AF 23               [ 6] 1743 	INC	HL
    000006B0 DD 7E 03         [19] 1744 	LD	A, 3 (IX) ;nDuration
    000006B3 77               [ 7] 1745 	LD	(HL), A
    000006B4 23               [ 6] 1746 	INC	HL
    000006B5 DD 7E 04         [19] 1747 	LD	A, 4 (IX) ;nDuration
    000006B8 77               [ 7] 1748 	LD	(HL), A
    000006B9 23               [ 6] 1749 	INC	HL
    000006BA 21 DE D7         [10] 1750 	LD	HL, #0xd7de
    000006BD CD AA BC         [17] 1751 	CALL	#0xBCAA ;SOUND QUEUE
                                   1752 ;mini_BASIC/minibasic.h:333: }
    000006C0 E1               [10] 1753 	pop	hl
    000006C1 F1               [10] 1754 	pop	af
    000006C2 F1               [10] 1755 	pop	af
    000006C3 F1               [10] 1756 	pop	af
    000006C4 E9               [ 4] 1757 	jp	(hl)
                                   1758 ;mini_BASIC/minibasic.h:335: void _basic_ink (char ink1, char ink2)
                                   1759 ;	---------------------------------
                                   1760 ; Function _basic_ink
                                   1761 ; ---------------------------------
    000006C5                       1762 __basic_ink::
                                   1763 ;mini_BASIC/minibasic.h:347: __endasm;	
    000006C5 DD 21 02 00      [14] 1764 	ld	ix,#2; posicion primer parametro 
    000006C9 DD 39            [15] 1765 	add ix,sp;
    000006CB DD 7E 00         [19] 1766 	ld	a, (ix)
    000006CE DD 46 02         [19] 1767 	ld	b, 2(ix)
    000006D1 48               [ 4] 1768 	ld	c,b
    000006D2 CD 32 BC         [17] 1769 	call	0xbc32
                                   1770 ;mini_BASIC/minibasic.h:348: }
    000006D5 C9               [10] 1771 	ret
                                   1772 ;mini_BASIC/minibasic.h:350: char _basic_peek(unsigned int address)
                                   1773 ;	---------------------------------
                                   1774 ; Function _basic_peek
                                   1775 ; ---------------------------------
    000006D6                       1776 __basic_peek::
                                   1777 ;mini_BASIC/minibasic.h:361: __endasm;
    000006D6 DD 21 02 00      [14] 1778 	ld	ix,#2; posicion primer parametro 
    000006DA DD 39            [15] 1779 	add ix,sp;
    000006DC DD 6E 00         [19] 1780 	ld	l, (ix)
    000006DF DD 66 01         [19] 1781 	ld	h,1(ix)
    000006E2 7E               [ 7] 1782 	ld	a,(hl)
    000006E3 6F               [ 4] 1783 	ld	l,a
    000006E4 C9               [10] 1784 	ret
                                   1785 ;mini_BASIC/minibasic.h:363: return 0;
    000006E5 AF               [ 4] 1786 	xor	a, a
                                   1787 ;mini_BASIC/minibasic.h:365: }
    000006E6 C9               [10] 1788 	ret
                                   1789 ;mini_BASIC/minibasic.h:367: void _basic_poke(unsigned int address, unsigned char data)
                                   1790 ;	---------------------------------
                                   1791 ; Function _basic_poke
                                   1792 ; ---------------------------------
    000006E7                       1793 __basic_poke::
                                   1794 ;mini_BASIC/minibasic.h:381: __endasm;
    000006E7 DD 21 02 00      [14] 1795 	ld	ix,#2; posicion primer parametro 
    000006EB DD 39            [15] 1796 	add ix,sp;
    000006ED DD 6E 00         [19] 1797 	ld	l, (ix)
    000006F0 DD 66 01         [19] 1798 	ld	h,1(ix)
    000006F3 DD 7E 02         [19] 1799 	ld	a,2(ix)
    000006F6 77               [ 7] 1800 	ld	(hl),a
    000006F7 C9               [10] 1801 	ret
                                   1802 ;mini_BASIC/minibasic.h:382: }
    000006F8 E1               [10] 1803 	pop	hl
    000006F9 33               [ 6] 1804 	inc	sp
    000006FA E9               [ 4] 1805 	jp	(hl)
                                   1806 ;mini_BASIC/minibasic.h:384: void _basic_pen_txt(char ink)
                                   1807 ;	---------------------------------
                                   1808 ; Function _basic_pen_txt
                                   1809 ; ---------------------------------
    000006FB                       1810 __basic_pen_txt::
                                   1811 ;mini_BASIC/minibasic.h:392: __endasm;
    000006FB DD 21 02 00      [14] 1812 	ld	ix,#2; posicion primer parametro 
    000006FF DD 39            [15] 1813 	add ix,sp;
    00000701 DD 7E 00         [19] 1814 	ld	a, (ix)
    00000704 CD 90 BB         [17] 1815 	call	0xbb90
                                   1816 ;mini_BASIC/minibasic.h:395: }
    00000707 C9               [10] 1817 	ret
                                   1818 ;mini_BASIC/minibasic.h:396: void _basic_pen_graph(char ink)
                                   1819 ;	---------------------------------
                                   1820 ; Function _basic_pen_graph
                                   1821 ; ---------------------------------
    00000708                       1822 __basic_pen_graph::
                                   1823 ;mini_BASIC/minibasic.h:403: __endasm;
    00000708 DD 21 02 00      [14] 1824 	ld	ix,#2; posicion primer parametro 
    0000070C DD 39            [15] 1825 	add ix,sp;
    0000070E DD 7E 00         [19] 1826 	ld	a, (ix)
    00000711 CD DE BB         [17] 1827 	call	0xbbde
                                   1828 ;mini_BASIC/minibasic.h:405: }
    00000714 C9               [10] 1829 	ret
                                   1830 ;mini_BASIC/minibasic.h:411: void _basic_paper(char ink)
                                   1831 ;	---------------------------------
                                   1832 ; Function _basic_paper
                                   1833 ; ---------------------------------
    00000715                       1834 __basic_paper::
                                   1835 ;mini_BASIC/minibasic.h:418: __endasm;
    00000715 DD 21 02 00      [14] 1836 	ld	ix,#2; posicion primer parametro 
    00000719 DD 39            [15] 1837 	add ix,sp;
    0000071B DD 7E 00         [19] 1838 	ld	a, (ix)
    0000071E CD 96 BB         [17] 1839 	call	0xbb96
                                   1840 ;mini_BASIC/minibasic.h:420: }
    00000721 C9               [10] 1841 	ret
                                   1842 ;mini_BASIC/minibasic.h:422: void _basic_plot(int x, int y){
                                   1843 ;	---------------------------------
                                   1844 ; Function _basic_plot
                                   1845 ; ---------------------------------
    00000722                       1846 __basic_plot::
                                   1847 ;mini_BASIC/minibasic.h:435: __endasm;
    00000722 DD 21 02 00      [14] 1848 	ld	ix,#2; posicion primer parametro 
    00000726 DD 39            [15] 1849 	add ix,sp;
    00000728 DD 5E 00         [19] 1850 	ld	e,(ix)
    0000072B DD 56 01         [19] 1851 	ld	d, 1(ix)
    0000072E DD 6E 02         [19] 1852 	ld	l, 2(ix)
    00000731 DD 66 03         [19] 1853 	ld	h, 3(ix)
    00000734 CD EA BB         [17] 1854 	call	0xBBEA ; GRA PLOT ABSOLUTE
    00000737 C9               [10] 1855 	ret
                                   1856 ;mini_BASIC/minibasic.h:436: }
    00000738 C9               [10] 1857 	ret
                                   1858 ;mini_BASIC/minibasic.h:438: void _basic_move(int x, int y){
                                   1859 ;	---------------------------------
                                   1860 ; Function _basic_move
                                   1861 ; ---------------------------------
    00000739                       1862 __basic_move::
                                   1863 ;mini_BASIC/minibasic.h:451: __endasm;
    00000739 DD 21 02 00      [14] 1864 	ld	ix,#2; posicion primer parametro 
    0000073D DD 39            [15] 1865 	add ix,sp;
    0000073F DD 5E 00         [19] 1866 	ld	e,(ix)
    00000742 DD 56 01         [19] 1867 	ld	d, 1(ix)
    00000745 DD 6E 02         [19] 1868 	ld	l, 2(ix)
    00000748 DD 66 03         [19] 1869 	ld	h, 3(ix)
    0000074B CD C0 BB         [17] 1870 	call	0xBBC0 ; GRA MOVE ABSOLUTE
    0000074E C9               [10] 1871 	ret
                                   1872 ;mini_BASIC/minibasic.h:452: }
    0000074F C9               [10] 1873 	ret
                                   1874 ;mini_BASIC/minibasic.h:454: void _basic_draw(int x, int y)
                                   1875 ;	---------------------------------
                                   1876 ; Function _basic_draw
                                   1877 ; ---------------------------------
    00000750                       1878 __basic_draw::
                                   1879 ;mini_BASIC/minibasic.h:469: __endasm;	
    00000750 DD 21 02 00      [14] 1880 	ld	ix,#2; posicion primer parametro 
    00000754 DD 39            [15] 1881 	add ix,sp;
    00000756 DD 5E 00         [19] 1882 	ld	e,(ix)
    00000759 DD 56 01         [19] 1883 	ld	d, 1(ix)
    0000075C DD 6E 02         [19] 1884 	ld	l, 2(ix)
    0000075F DD 66 03         [19] 1885 	ld	h, 3(ix)
    00000762 CD F6 BB         [17] 1886 	call	0xBBF6 ; GRA LlNE ABSOLUTE
    00000765 C9               [10] 1887 	ret
                                   1888 ;mini_BASIC/minibasic.h:471: }
    00000766 C9               [10] 1889 	ret
                                   1890 ;BASIC/ciclo.c:12: int main()
                                   1891 ;	---------------------------------
                                   1892 ; Function main
                                   1893 ; ---------------------------------
    00000767                       1894 _main::
    00000767 21 E5 FF         [10] 1895 	ld	hl, #-27
    0000076A 39               [11] 1896 	add	hl, sp
    0000076B F9               [ 6] 1897 	ld	sp, hl
                                   1898 ;BASIC/ciclo.c:14: _basic_border(7);
    0000076C 3E 07            [ 7] 1899 	ld	a, #0x07
    0000076E CDrEBr04         [17] 1900 	call	__basic_border
                                   1901 ;BASIC/ciclo.c:15: char cad[] = "has fracasado en tu mision"; // la inicializamos con una frase
    00000771 FD 21 00 00      [14] 1902 	ld	iy, #0
    00000775 FD 39            [15] 1903 	add	iy, sp
    00000777 FD 36 00 68      [19] 1904 	ld	0 (iy), #0x68
    0000077B FD 23            [10] 1905 	inc	iy
    0000077D FD 36 00 61      [19] 1906 	ld	0 (iy), #0x61
    00000781 FD 23            [10] 1907 	inc	iy
    00000783 FD 36 00 73      [19] 1908 	ld	0 (iy), #0x73
    00000787 FD 23            [10] 1909 	inc	iy
    00000789 FD 36 00 20      [19] 1910 	ld	0 (iy), #0x20
    0000078D FD 23            [10] 1911 	inc	iy
    0000078F FD 36 00 66      [19] 1912 	ld	0 (iy), #0x66
    00000793 FD 23            [10] 1913 	inc	iy
    00000795 FD 36 00 72      [19] 1914 	ld	0 (iy), #0x72
    00000799 FD 23            [10] 1915 	inc	iy
    0000079B FD 36 00 61      [19] 1916 	ld	0 (iy), #0x61
    0000079F FD 23            [10] 1917 	inc	iy
    000007A1 FD 36 00 63      [19] 1918 	ld	0 (iy), #0x63
    000007A5 FD 23            [10] 1919 	inc	iy
    000007A7 FD 36 00 61      [19] 1920 	ld	0 (iy), #0x61
    000007AB FD 23            [10] 1921 	inc	iy
    000007AD FD 36 00 73      [19] 1922 	ld	0 (iy), #0x73
    000007B1 FD 23            [10] 1923 	inc	iy
    000007B3 FD 36 00 61      [19] 1924 	ld	0 (iy), #0x61
    000007B7 FD 23            [10] 1925 	inc	iy
    000007B9 FD 36 00 64      [19] 1926 	ld	0 (iy), #0x64
    000007BD FD 23            [10] 1927 	inc	iy
    000007BF FD 36 00 6F      [19] 1928 	ld	0 (iy), #0x6f
    000007C3 FD 23            [10] 1929 	inc	iy
    000007C5 FD 36 00 20      [19] 1930 	ld	0 (iy), #0x20
    000007C9 FD 23            [10] 1931 	inc	iy
    000007CB FD 36 00 65      [19] 1932 	ld	0 (iy), #0x65
    000007CF FD 23            [10] 1933 	inc	iy
    000007D1 FD 36 00 6E      [19] 1934 	ld	0 (iy), #0x6e
    000007D5 FD 23            [10] 1935 	inc	iy
    000007D7 FD 36 00 20      [19] 1936 	ld	0 (iy), #0x20
    000007DB FD 23            [10] 1937 	inc	iy
    000007DD FD 36 00 74      [19] 1938 	ld	0 (iy), #0x74
    000007E1 FD 23            [10] 1939 	inc	iy
    000007E3 FD 36 00 75      [19] 1940 	ld	0 (iy), #0x75
    000007E7 FD 23            [10] 1941 	inc	iy
    000007E9 FD 36 00 20      [19] 1942 	ld	0 (iy), #0x20
    000007ED FD 23            [10] 1943 	inc	iy
    000007EF FD 36 00 6D      [19] 1944 	ld	0 (iy), #0x6d
    000007F3 FD 23            [10] 1945 	inc	iy
    000007F5 FD 36 00 69      [19] 1946 	ld	0 (iy), #0x69
    000007F9 FD 23            [10] 1947 	inc	iy
    000007FB FD 36 00 73      [19] 1948 	ld	0 (iy), #0x73
    000007FF FD 23            [10] 1949 	inc	iy
    00000801 FD 36 00 69      [19] 1950 	ld	0 (iy), #0x69
    00000805 FD 23            [10] 1951 	inc	iy
    00000807 FD 36 00 6F      [19] 1952 	ld	0 (iy), #0x6f
    0000080B FD 23            [10] 1953 	inc	iy
    0000080D FD 36 00 6E      [19] 1954 	ld	0 (iy), #0x6e
    00000811 FD 23            [10] 1955 	inc	iy
    00000813 FD 36 00 00      [19] 1956 	ld	0 (iy), #0x00
                                   1957 ;BASIC/ciclo.c:16: _basic_print(cad);
    00000817 21 00 00         [10] 1958 	ld	hl, #0
    0000081A 39               [11] 1959 	add	hl, sp
    0000081B CDr03r05         [17] 1960 	call	__basic_print
                                   1961 ;BASIC/ciclo.c:17: return 0;
    0000081E 11 00 00         [10] 1962 	ld	de, #0x0000
                                   1963 ;BASIC/ciclo.c:18: }
    00000821 21 1B 00         [10] 1964 	ld	hl, #27
    00000824 39               [11] 1965 	add	hl, sp
    00000825 F9               [ 6] 1966 	ld	sp, hl
    00000826 C9               [10] 1967 	ret
                                   1968 	.area _CODE
                                   1969 	.area _INITIALIZER
    00000000                       1970 __xinit___basic_rnd_x:
    00000000 00 00                 1971 	.dw #0x0000
                                   1972 	.area _CABS (ABS)
